GAS LISTING /tmp/cclaT7H7.s 			page 1


   1              		.file	"MemoryAllocator.cpp"
   2              		.option pic
   3              		.option norelax
   4              		.text
   5              	.Ltext0:
   6              		.align	2
   7              		.globl	_ZN15MemoryAllocator6mallocEm
   9              	_ZN15MemoryAllocator6mallocEm:
  10              	.LFB3:
  11              		.file 1 "src/MemoryAllocator.cpp"
   1:src/MemoryAllocator.cpp **** #include "../h/MemoryAllocator.hpp"
   2:src/MemoryAllocator.cpp **** #include "../lib/console.h"
   3:src/MemoryAllocator.cpp **** MemoryAllocator::BlockHeader* MemoryAllocator::freeMemHead = nullptr;
   4:src/MemoryAllocator.cpp **** MemoryAllocator::BlockHeaderAllocated* MemoryAllocator::allocatedMemHead = nullptr;
   5:src/MemoryAllocator.cpp **** bool MemoryAllocator::calledOnce = false;
   6:src/MemoryAllocator.cpp **** 
   7:src/MemoryAllocator.cpp **** 
   8:src/MemoryAllocator.cpp **** //size is in bytes
   9:src/MemoryAllocator.cpp **** void* MemoryAllocator::malloc(size_t size){
  12              		.loc 1 9 43
  13              		.cfi_startproc
  14              	.LVL0:
  15 0000 130101FF 		addi	sp,sp,-16
  16              		.cfi_def_cfa_offset 16
  17 0004 23348100 		sd	s0,8(sp)
  18              		.cfi_offset 8, -8
  19 0008 13040101 		addi	s0,sp,16
  20              		.cfi_def_cfa 8, 0
  10:src/MemoryAllocator.cpp ****     /*
  11:src/MemoryAllocator.cpp ****     If malloc hasn't been called once before, then initialization of freeMemHead needs to be done
  12:src/MemoryAllocator.cpp ****     */
  13:src/MemoryAllocator.cpp ****     size = size * MEM_BLOCK_SIZE;
  21              		.loc 1 13 5
  22              		.loc 1 13 10 is_stmt 0
  23 000c 13176500 		slli	a4,a0,6
  24              	.LVL1:
  14:src/MemoryAllocator.cpp ****     if(!calledOnce){
  25              		.loc 1 14 5 is_stmt 1
  26              		.loc 1 14 8 is_stmt 0
  27 0010 97070000 		lbu	a5,.LANCHOR0
  27      83C70700 
  28              		.loc 1 14 5
  29 0018 63940704 		bnez	a5,.L2
  15:src/MemoryAllocator.cpp ****         freeMemHead = (BlockHeader*)HEAP_START_ADDR;
  30              		.loc 1 15 9 is_stmt 1
  31              		.loc 1 15 21 is_stmt 0
  32 001c 17060000 		la	a2,HEAP_START_ADDR
  32      03360600 
  33 0024 83370600 		ld	a5,0(a2)
  34 0028 97060000 		lla	a3,.LANCHOR0
  34      93860600 
  35 0030 23B4F600 		sd	a5,8(a3)
  16:src/MemoryAllocator.cpp ****         freeMemHead->next = nullptr;
  36              		.loc 1 16 9 is_stmt 1
  37              		.loc 1 16 27 is_stmt 0
  38 0034 23B00700 		sd	zero,0(a5)
  17:src/MemoryAllocator.cpp ****         freeMemHead->size = (size_t)HEAP_END_ADDR - (size_t)HEAP_START_ADDR - (size_t)sizeof(BlockH
GAS LISTING /tmp/cclaT7H7.s 			page 2


  39              		.loc 1 17 9 is_stmt 1
  40              		.loc 1 17 51 is_stmt 0
  41 0038 97070000 		la	a5,HEAP_END_ADDR
  41      83B70700 
  42 0040 83B70700 		ld	a5,0(a5)
  43 0044 03360600 		ld	a2,0(a2)
  44 0048 B387C740 		sub	a5,a5,a2
  45              		.loc 1 17 22
  46 004c 03B68600 		ld	a2,8(a3)
  47              		.loc 1 17 77
  48 0050 938707FF 		addi	a5,a5,-16
  49              		.loc 1 17 27
  50 0054 2334F600 		sd	a5,8(a2)
  18:src/MemoryAllocator.cpp ****         calledOnce = true;
  51              		.loc 1 18 9 is_stmt 1
  52              		.loc 1 18 20 is_stmt 0
  53 0058 93071000 		li	a5,1
  54 005c 2380F600 		sb	a5,0(a3)
  55              	.L2:
  19:src/MemoryAllocator.cpp ****     }
  20:src/MemoryAllocator.cpp **** 
  21:src/MemoryAllocator.cpp ****     BlockHeader *blk = freeMemHead, *prev = nullptr;
  56              		.loc 1 21 5 is_stmt 1
  57              		.loc 1 21 18 is_stmt 0
  58 0060 17050000 		ld	a0,.LANCHOR0+8
  58      03350500 
  59              	.LVL2:
  60              		.loc 1 21 38
  61 0068 93060000 		li	a3,0
  62              	.LVL3:
  63              	.L4:
  22:src/MemoryAllocator.cpp ****     for(; blk!=nullptr; prev = blk, blk = blk->next){
  64              		.loc 1 22 5 is_stmt 1 discriminator 1
  65              		.loc 1 22 14 discriminator 1
  66 006c 630C0500 		beqz	a0,.L3
  23:src/MemoryAllocator.cpp ****         if(blk->size >= size)break;
  67              		.loc 1 23 9
  68              		.loc 1 23 17 is_stmt 0
  69 0070 83378500 		ld	a5,8(a0)
  70              		.loc 1 23 9
  71 0074 63F8E700 		bgeu	a5,a4,.L3
  22:src/MemoryAllocator.cpp ****     for(; blk!=nullptr; prev = blk, blk = blk->next){
  72              		.loc 1 22 5 is_stmt 1
  73              	.LVL4:
  22:src/MemoryAllocator.cpp ****     for(; blk!=nullptr; prev = blk, blk = blk->next){
  74              		.loc 1 22 30 is_stmt 0
  75 0078 93060500 		mv	a3,a0
  22:src/MemoryAllocator.cpp ****     for(; blk!=nullptr; prev = blk, blk = blk->next){
  76              		.loc 1 22 41
  77 007c 03350500 		ld	a0,0(a0)
  78              	.LVL5:
  22:src/MemoryAllocator.cpp ****     for(; blk!=nullptr; prev = blk, blk = blk->next){
  79              		.loc 1 22 5
  80 0080 6FF0DFFE 		j	.L4
  81              	.L3:
  24:src/MemoryAllocator.cpp ****     }
  25:src/MemoryAllocator.cpp **** 
GAS LISTING /tmp/cclaT7H7.s 			page 3


  26:src/MemoryAllocator.cpp ****     // No space for allocating such chunk of memory
  27:src/MemoryAllocator.cpp ****     if(blk == nullptr){
  82              		.loc 1 27 5 is_stmt 1
  83 0084 6308050A 		beqz	a0,.L1
  28:src/MemoryAllocator.cpp ****         return 0;
  29:src/MemoryAllocator.cpp ****     }
  30:src/MemoryAllocator.cpp **** 
  31:src/MemoryAllocator.cpp ****     size_t remainingSize = blk->size - size;
  84              		.loc 1 31 5
  85              		.loc 1 31 33 is_stmt 0
  86 0088 83378500 		ld	a5,8(a0)
  87              		.loc 1 31 12
  88 008c B387E740 		sub	a5,a5,a4
  89              	.LVL6:
  32:src/MemoryAllocator.cpp ****     if(remainingSize >= sizeof(BlockHeader) + MEM_BLOCK_SIZE){
  90              		.loc 1 32 5 is_stmt 1
  91              	.LBB2:
  92 0090 1306F004 		li	a2,79
  93 0094 6370F606 		bleu	a5,a2,.L6
  94              	.LBB3:
  33:src/MemoryAllocator.cpp ****         blk->size = size;
  95              		.loc 1 33 9
  96              		.loc 1 33 19 is_stmt 0
  97 0098 2334E500 		sd	a4,8(a0)
  34:src/MemoryAllocator.cpp ****         size_t offset = sizeof(BlockHeader) + size;
  98              		.loc 1 34 9 is_stmt 1
  99              		.loc 1 34 16 is_stmt 0
 100 009c 13070701 		addi	a4,a4,16
 101              	.LVL7:
  35:src/MemoryAllocator.cpp ****         BlockHeader* newBlk = (BlockHeader*)((char*)blk+offset);
 102              		.loc 1 35 9 is_stmt 1
 103              		.loc 1 35 22 is_stmt 0
 104 00a0 3307E500 		add	a4,a0,a4
 105              	.LVL8:
  36:src/MemoryAllocator.cpp ****         if(prev)prev->next = newBlk;
 106              		.loc 1 36 9 is_stmt 1
 107 00a4 63820604 		beqz	a3,.L7
 108              		.loc 1 36 17 discriminator 1
 109              		.loc 1 36 28 is_stmt 0 discriminator 1
 110 00a8 23B0E600 		sd	a4,0(a3)
 111              	.LVL9:
 112              	.L8:
  37:src/MemoryAllocator.cpp ****         else freeMemHead = newBlk;
  38:src/MemoryAllocator.cpp ****         newBlk->next = blk->next;
 113              		.loc 1 38 9 is_stmt 1
 114              		.loc 1 38 29 is_stmt 0
 115 00ac 83360500 		ld	a3,0(a0)
 116              		.loc 1 38 22
 117 00b0 2330D700 		sd	a3,0(a4)
  39:src/MemoryAllocator.cpp ****         newBlk->size = remainingSize - sizeof(BlockHeader);
 118              		.loc 1 39 9 is_stmt 1
 119              		.loc 1 39 38 is_stmt 0
 120 00b4 938707FF 		addi	a5,a5,-16
 121              	.LVL10:
 122              		.loc 1 39 22
 123 00b8 2334F700 		sd	a5,8(a4)
 124              	.LVL11:
GAS LISTING /tmp/cclaT7H7.s 			page 4


 125              	.L9:
 126              	.LBE3:
 127              	.LBE2:
  40:src/MemoryAllocator.cpp ****     }else{
  41:src/MemoryAllocator.cpp ****         if(prev)prev->next = blk->next;
  42:src/MemoryAllocator.cpp ****         else freeMemHead = blk->next;
  43:src/MemoryAllocator.cpp ****     }
  44:src/MemoryAllocator.cpp ****     blk->next = nullptr;
 128              		.loc 1 44 5 is_stmt 1
 129              		.loc 1 44 15 is_stmt 0
 130 00bc 23300500 		sd	zero,0(a0)
  45:src/MemoryAllocator.cpp **** 
  46:src/MemoryAllocator.cpp ****     BlockHeaderAllocated* blkAllocated = (BlockHeaderAllocated*)blk;
 131              		.loc 1 46 5 is_stmt 1
 132              	.LVL12:
  47:src/MemoryAllocator.cpp ****     blkAllocated->next = nullptr;
 133              		.loc 1 47 5
  48:src/MemoryAllocator.cpp ****     blkAllocated->size = blk->size;
 134              		.loc 1 48 5
  49:src/MemoryAllocator.cpp **** 
  50:src/MemoryAllocator.cpp ****     if(!allocatedMemHead)allocatedMemHead = blkAllocated;
 135              		.loc 1 50 5
 136              	.LBB5:
 137              		.loc 1 50 8 is_stmt 0
 138 00c0 97060000 		ld	a3,.LANCHOR0+16
 138      83B60600 
 139              		.loc 1 50 5
 140 00c8 63860604 		beqz	a3,.L17
 141              	.LBB6:
  51:src/MemoryAllocator.cpp ****     else{
  52:src/MemoryAllocator.cpp ****         BlockHeaderAllocated* cur = allocatedMemHead, *prev = nullptr;
 142              		.loc 1 52 31
 143 00cc 93870600 		mv	a5,a3
 144              		.loc 1 52 56
 145 00d0 13070000 		li	a4,0
 146              	.L11:
 147              	.LVL13:
  53:src/MemoryAllocator.cpp ****         for(; cur!=nullptr; prev = cur, cur = cur->next){
 148              		.loc 1 53 9 is_stmt 1 discriminator 1
 149              		.loc 1 53 18 discriminator 1
 150 00d4 63860704 		beqz	a5,.L13
  54:src/MemoryAllocator.cpp ****             if((char*)cur > (char*)blkAllocated)break;
 151              		.loc 1 54 13
 152 00d8 6364F504 		bltu	a0,a5,.L13
  53:src/MemoryAllocator.cpp ****         for(; cur!=nullptr; prev = cur, cur = cur->next){
 153              		.loc 1 53 9
 154              	.LVL14:
  53:src/MemoryAllocator.cpp ****         for(; cur!=nullptr; prev = cur, cur = cur->next){
 155              		.loc 1 53 34 is_stmt 0
 156 00dc 13870700 		mv	a4,a5
  53:src/MemoryAllocator.cpp ****         for(; cur!=nullptr; prev = cur, cur = cur->next){
 157              		.loc 1 53 45
 158 00e0 83B70700 		ld	a5,0(a5)
 159              	.LVL15:
  53:src/MemoryAllocator.cpp ****         for(; cur!=nullptr; prev = cur, cur = cur->next){
 160              		.loc 1 53 9
 161 00e4 6FF01FFF 		j	.L11
GAS LISTING /tmp/cclaT7H7.s 			page 5


 162              	.LVL16:
 163              	.L7:
 164              	.LBE6:
 165              	.LBE5:
 166              	.LBB9:
 167              	.LBB4:
  37:src/MemoryAllocator.cpp ****         newBlk->next = blk->next;
 168              		.loc 1 37 14 is_stmt 1
  37:src/MemoryAllocator.cpp ****         newBlk->next = blk->next;
 169              		.loc 1 37 26 is_stmt 0
 170 00e8 97060000 		sd	a4,.LANCHOR0+8,a3
 170      23B0E600 
 171              	.LVL17:
 172 00f0 6FF0DFFB 		j	.L8
 173              	.LVL18:
 174              	.L6:
 175              	.LBE4:
  41:src/MemoryAllocator.cpp ****         else freeMemHead = blk->next;
 176              		.loc 1 41 9 is_stmt 1
 177 00f4 63880600 		beqz	a3,.L10
  41:src/MemoryAllocator.cpp ****         else freeMemHead = blk->next;
 178              		.loc 1 41 17 discriminator 1
  41:src/MemoryAllocator.cpp ****         else freeMemHead = blk->next;
 179              		.loc 1 41 35 is_stmt 0 discriminator 1
 180 00f8 83370500 		ld	a5,0(a0)
 181              	.LVL19:
  41:src/MemoryAllocator.cpp ****         else freeMemHead = blk->next;
 182              		.loc 1 41 28 discriminator 1
 183 00fc 23B0F600 		sd	a5,0(a3)
 184              	.LVL20:
 185 0100 6FF0DFFB 		j	.L9
 186              	.LVL21:
 187              	.L10:
  42:src/MemoryAllocator.cpp ****     }
 188              		.loc 1 42 14 is_stmt 1
  42:src/MemoryAllocator.cpp ****     }
 189              		.loc 1 42 33 is_stmt 0
 190 0104 83370500 		ld	a5,0(a0)
 191              	.LVL22:
  42:src/MemoryAllocator.cpp ****     }
 192              		.loc 1 42 26
 193 0108 17070000 		sd	a5,.LANCHOR0+8,a4
 193      2330F700 
 194              	.LVL23:
 195 0110 6FF0DFFA 		j	.L9
 196              	.LVL24:
 197              	.L17:
 198              	.LBE9:
 199              	.LBB10:
  50:src/MemoryAllocator.cpp ****     else{
 200              		.loc 1 50 26 is_stmt 1 discriminator 1
  50:src/MemoryAllocator.cpp ****     else{
 201              		.loc 1 50 43 is_stmt 0 discriminator 1
 202 0114 97070000 		sd	a0,.LANCHOR0+16,a5
 202      23B0A700 
 203 011c 6F004001 		j	.L12
 204              	.LVL25:
GAS LISTING /tmp/cclaT7H7.s 			page 6


 205              	.L13:
 206              	.LBB7:
  55:src/MemoryAllocator.cpp ****         }
  56:src/MemoryAllocator.cpp ****         if(!prev){
 207              		.loc 1 56 9 is_stmt 1
 208 0120 63000702 		beqz	a4,.L18
  57:src/MemoryAllocator.cpp ****             blkAllocated->next = allocatedMemHead;
  58:src/MemoryAllocator.cpp ****             allocatedMemHead = blkAllocated;
  59:src/MemoryAllocator.cpp ****         }else{
  60:src/MemoryAllocator.cpp ****             blkAllocated->next = prev->next;
 209              		.loc 1 60 13
 210              		.loc 1 60 40 is_stmt 0
 211 0124 83370700 		ld	a5,0(a4)
 212              	.LVL26:
 213              		.loc 1 60 32
 214 0128 2330F500 		sd	a5,0(a0)
  61:src/MemoryAllocator.cpp ****             prev->next = blkAllocated;
 215              		.loc 1 61 13 is_stmt 1
 216              		.loc 1 61 24 is_stmt 0
 217 012c 2330A700 		sd	a0,0(a4)
 218              	.LVL27:
 219              	.L12:
 220              	.LBE7:
 221              	.LBE10:
  62:src/MemoryAllocator.cpp ****         }
  63:src/MemoryAllocator.cpp ****     }
  64:src/MemoryAllocator.cpp ****     return (void*)((char*)blk+sizeof(BlockHeader));
 222              		.loc 1 64 5 is_stmt 1
 223              		.loc 1 64 50 is_stmt 0
 224 0130 13050501 		addi	a0,a0,16
 225              	.LVL28:
 226              	.L1:
  65:src/MemoryAllocator.cpp **** }
 227              		.loc 1 65 1
 228 0134 03348100 		ld	s0,8(sp)
 229              		.cfi_remember_state
 230              		.cfi_restore 8
 231              		.cfi_def_cfa 2, 16
 232 0138 13010101 		addi	sp,sp,16
 233              		.cfi_def_cfa_offset 0
 234 013c 67800000 		jr	ra
 235              	.LVL29:
 236              	.L18:
 237              		.cfi_restore_state
 238              	.LBB11:
 239              	.LBB8:
  57:src/MemoryAllocator.cpp ****             allocatedMemHead = blkAllocated;
 240              		.loc 1 57 13 is_stmt 1
  57:src/MemoryAllocator.cpp ****             allocatedMemHead = blkAllocated;
 241              		.loc 1 57 32 is_stmt 0
 242 0140 2330D500 		sd	a3,0(a0)
  58:src/MemoryAllocator.cpp ****         }else{
 243              		.loc 1 58 13 is_stmt 1
  58:src/MemoryAllocator.cpp ****         }else{
 244              		.loc 1 58 30 is_stmt 0
 245 0144 97070000 		sd	a0,.LANCHOR0+16,a5
 245      23B0A700 
GAS LISTING /tmp/cclaT7H7.s 			page 7


 246              	.LVL30:
 247 014c 6FF05FFE 		j	.L12
 248              	.LBE8:
 249              	.LBE11:
 250              		.cfi_endproc
 251              	.LFE3:
 253              		.align	2
 254              		.globl	_ZN15MemoryAllocator4freeEPv
 256              	_ZN15MemoryAllocator4freeEPv:
 257              	.LFB4:
  66:src/MemoryAllocator.cpp **** 
  67:src/MemoryAllocator.cpp **** int MemoryAllocator::free(void* addr){
 258              		.loc 1 67 38 is_stmt 1
 259              		.cfi_startproc
 260              	.LVL31:
 261 0150 130101FF 		addi	sp,sp,-16
 262              		.cfi_def_cfa_offset 16
 263 0154 23348100 		sd	s0,8(sp)
 264              		.cfi_offset 8, -8
 265 0158 13040101 		addi	s0,sp,16
 266              		.cfi_def_cfa 8, 0
  68:src/MemoryAllocator.cpp ****     //address out of bounds => code -1
  69:src/MemoryAllocator.cpp ****     if(addr<HEAP_START_ADDR || addr>=HEAP_END_ADDR)return -1;
 267              		.loc 1 69 5
 268              		.loc 1 69 12 is_stmt 0
 269 015c 97070000 		la	a5,HEAP_START_ADDR
 269      83B70700 
 270 0164 83B70700 		ld	a5,0(a5)
 271              		.loc 1 69 5
 272 0168 6368F518 		bgtu	a5,a0,.L29
 273              		.loc 1 69 36 discriminator 2
 274 016c 97070000 		la	a5,HEAP_END_ADDR
 274      83B70700 
 275 0174 83B70700 		ld	a5,0(a5)
 276              		.loc 1 69 29 discriminator 2
 277 0178 6374F518 		bleu	a5,a0,.L30
  70:src/MemoryAllocator.cpp ****     //if malloc hasn't been called before then there is nothing to free => code -2
  71:src/MemoryAllocator.cpp ****     if(!calledOnce)return -2;
 278              		.loc 1 71 5 is_stmt 1
 279              		.loc 1 71 8 is_stmt 0
 280 017c 97070000 		lbu	a5,.LANCHOR0
 280      83C70700 
 281              		.loc 1 71 5
 282 0184 63820718 		beqz	a5,.L31
  72:src/MemoryAllocator.cpp **** 
  73:src/MemoryAllocator.cpp **** 
  74:src/MemoryAllocator.cpp ****     BlockHeaderAllocated* cur = allocatedMemHead, *prev = nullptr;
 283              		.loc 1 74 5 is_stmt 1
 284              		.loc 1 74 27 is_stmt 0
 285 0188 97070000 		ld	a5,.LANCHOR0+16
 285      83B70700 
 286              	.LVL32:
 287              		.loc 1 74 52
 288 0190 93060000 		li	a3,0
 289              	.LVL33:
 290              	.L22:
  75:src/MemoryAllocator.cpp ****     for(; cur!=nullptr; prev = cur, cur = cur->next){
GAS LISTING /tmp/cclaT7H7.s 			page 8


 291              		.loc 1 75 5 is_stmt 1 discriminator 1
 292              		.loc 1 75 14 discriminator 1
 293 0194 638C0700 		beqz	a5,.L21
  76:src/MemoryAllocator.cpp ****         if((char*)cur+sizeof(BlockHeaderAllocated)==(char*)addr)break;
 294              		.loc 1 76 9
 295              		.loc 1 76 22 is_stmt 0
 296 0198 13870701 		addi	a4,a5,16
 297              		.loc 1 76 9
 298 019c 6308A700 		beq	a4,a0,.L21
  75:src/MemoryAllocator.cpp ****     for(; cur!=nullptr; prev = cur, cur = cur->next){
 299              		.loc 1 75 5 is_stmt 1
 300              	.LVL34:
  75:src/MemoryAllocator.cpp ****     for(; cur!=nullptr; prev = cur, cur = cur->next){
 301              		.loc 1 75 30 is_stmt 0
 302 01a0 93860700 		mv	a3,a5
  75:src/MemoryAllocator.cpp ****     for(; cur!=nullptr; prev = cur, cur = cur->next){
 303              		.loc 1 75 41
 304 01a4 83B70700 		ld	a5,0(a5)
 305              	.LVL35:
  75:src/MemoryAllocator.cpp ****     for(; cur!=nullptr; prev = cur, cur = cur->next){
 306              		.loc 1 75 5
 307 01a8 6FF0DFFE 		j	.L22
 308              	.L21:
  77:src/MemoryAllocator.cpp ****     }
  78:src/MemoryAllocator.cpp **** 
  79:src/MemoryAllocator.cpp ****     if(!cur){
 309              		.loc 1 79 5 is_stmt 1
 310              	.LBB12:
 311 01ac 63820716 		beqz	a5,.L32
 312              	.LBB13:
  80:src/MemoryAllocator.cpp ****         // address is not the same that was given by malloc function
  81:src/MemoryAllocator.cpp ****         return -3;
  82:src/MemoryAllocator.cpp ****     }else{
  83:src/MemoryAllocator.cpp ****         if(!prev)allocatedMemHead = cur->next;
 313              		.loc 1 83 9
 314 01b0 638A0602 		beqz	a3,.L40
  84:src/MemoryAllocator.cpp ****         else prev->next = cur->next;
 315              		.loc 1 84 14
 316              		.loc 1 84 32 is_stmt 0
 317 01b4 03B70700 		ld	a4,0(a5)
 318              		.loc 1 84 25
 319 01b8 23B0E600 		sd	a4,0(a3)
 320              	.LVL36:
 321              	.L24:
  85:src/MemoryAllocator.cpp ****         cur->next = nullptr;
 322              		.loc 1 85 9 is_stmt 1
 323              		.loc 1 85 19 is_stmt 0
 324 01bc 23B00700 		sd	zero,0(a5)
  86:src/MemoryAllocator.cpp **** 
  87:src/MemoryAllocator.cpp **** 
  88:src/MemoryAllocator.cpp ****         BlockHeader* freeBlk = (BlockHeader*)cur, *curBlk = freeMemHead, *prev = nullptr;
 325              		.loc 1 88 9 is_stmt 1
 326              	.LVL37:
 327              		.loc 1 88 52 is_stmt 0
 328 01c0 17060000 		ld	a2,.LANCHOR0+8
 328      03360600 
 329              	.LVL38:
GAS LISTING /tmp/cclaT7H7.s 			page 9


 330 01c8 13070600 		mv	a4,a2
 331              		.loc 1 88 75
 332 01cc 93060000 		li	a3,0
 333              	.LVL39:
 334              	.L26:
  89:src/MemoryAllocator.cpp ****         for(; curBlk!=nullptr; prev = curBlk, curBlk = curBlk->next){
 335              		.loc 1 89 9 is_stmt 1 discriminator 1
 336              		.loc 1 89 21 discriminator 1
 337 01d0 63020702 		beqz	a4,.L25
  90:src/MemoryAllocator.cpp ****             if((char*)curBlk > (char*)freeBlk)break;
 338              		.loc 1 90 13
 339 01d4 63E0E702 		bltu	a5,a4,.L25
  89:src/MemoryAllocator.cpp ****         for(; curBlk!=nullptr; prev = curBlk, curBlk = curBlk->next){
 340              		.loc 1 89 9
 341              	.LVL40:
  89:src/MemoryAllocator.cpp ****         for(; curBlk!=nullptr; prev = curBlk, curBlk = curBlk->next){
 342              		.loc 1 89 37 is_stmt 0
 343 01d8 93060700 		mv	a3,a4
  89:src/MemoryAllocator.cpp ****         for(; curBlk!=nullptr; prev = curBlk, curBlk = curBlk->next){
 344              		.loc 1 89 54
 345 01dc 03370700 		ld	a4,0(a4)
 346              	.LVL41:
  89:src/MemoryAllocator.cpp ****         for(; curBlk!=nullptr; prev = curBlk, curBlk = curBlk->next){
 347              		.loc 1 89 9
 348 01e0 6FF01FFF 		j	.L26
 349              	.LVL42:
 350              	.L40:
  83:src/MemoryAllocator.cpp ****         else prev->next = cur->next;
 351              		.loc 1 83 18 is_stmt 1 discriminator 1
  83:src/MemoryAllocator.cpp ****         else prev->next = cur->next;
 352              		.loc 1 83 42 is_stmt 0 discriminator 1
 353 01e4 03B70700 		ld	a4,0(a5)
  83:src/MemoryAllocator.cpp ****         else prev->next = cur->next;
 354              		.loc 1 83 35 discriminator 1
 355 01e8 97060000 		sd	a4,.LANCHOR0+16,a3
 355      23B0E600 
 356              	.LVL43:
 357 01f0 6FF0DFFC 		j	.L24
 358              	.LVL44:
 359              	.L25:
  91:src/MemoryAllocator.cpp ****         }
  92:src/MemoryAllocator.cpp **** 
  93:src/MemoryAllocator.cpp ****         if(!prev){
 360              		.loc 1 93 9 is_stmt 1
 361 01f4 63840604 		beqz	a3,.L41
  94:src/MemoryAllocator.cpp ****             freeBlk->next = freeMemHead;
  95:src/MemoryAllocator.cpp ****             freeMemHead = freeBlk;
  96:src/MemoryAllocator.cpp **** 
  97:src/MemoryAllocator.cpp ****             if(freeBlk->next && (char*)freeBlk+sizeof(BlockHeader)+freeBlk->size == (char*)freeBlk-
  98:src/MemoryAllocator.cpp ****                 freeBlk->size += freeBlk->next->size + sizeof(BlockHeader);
  99:src/MemoryAllocator.cpp ****                 freeBlk->next = freeBlk->next->next;
 100:src/MemoryAllocator.cpp ****             }
 101:src/MemoryAllocator.cpp ****         }else{
 102:src/MemoryAllocator.cpp ****             freeBlk->next = prev->next;
 362              		.loc 1 102 13
 363              		.loc 1 102 35 is_stmt 0
 364 01f8 03B70600 		ld	a4,0(a3)
GAS LISTING /tmp/cclaT7H7.s 			page 10


 365              	.LVL45:
 366              		.loc 1 102 27
 367 01fc 23B0E700 		sd	a4,0(a5)
 103:src/MemoryAllocator.cpp ****             prev->next = freeBlk;
 368              		.loc 1 103 13 is_stmt 1
 369              		.loc 1 103 24 is_stmt 0
 370 0200 23B0F600 		sd	a5,0(a3)
 104:src/MemoryAllocator.cpp ****             //Try to merge previous free block and newly added one
 105:src/MemoryAllocator.cpp ****             if((char*)prev+sizeof(BlockHeader)+prev->size == (char*)freeBlk) {
 371              		.loc 1 105 13 is_stmt 1
 372              		.loc 1 105 54 is_stmt 0
 373 0204 03B68600 		ld	a2,8(a3)
 374              		.loc 1 105 47
 375 0208 13070601 		addi	a4,a2,16
 376 020c 3387E600 		add	a4,a3,a4
 377              		.loc 1 105 13
 378 0210 630CF706 		beq	a4,a5,.L42
 106:src/MemoryAllocator.cpp ****                 prev->size += freeBlk->size + sizeof(BlockHeader);
 107:src/MemoryAllocator.cpp ****                 prev->next = freeBlk->next;
 108:src/MemoryAllocator.cpp ****                 //Try to merge current free block (previous + new free block) with next free block
 109:src/MemoryAllocator.cpp ****                 if (prev->next && (char *) prev + sizeof(BlockHeader) + prev->size == (char *) prev
 110:src/MemoryAllocator.cpp ****                     prev->size += prev->next->size + sizeof(BlockHeader);
 111:src/MemoryAllocator.cpp ****                     prev->next = prev->next->next;
 112:src/MemoryAllocator.cpp ****                 }
 113:src/MemoryAllocator.cpp ****             }
 114:src/MemoryAllocator.cpp ****             //Try to merge newly added free block with next one
 115:src/MemoryAllocator.cpp ****             else if(freeBlk->next && (char*)freeBlk+sizeof(BlockHeader)+freeBlk->size == (char*)fre
 379              		.loc 1 115 18 is_stmt 1
 380              		.loc 1 115 30 is_stmt 0
 381 0214 03B70700 		ld	a4,0(a5)
 382              		.loc 1 115 18
 383 0218 63080710 		beqz	a4,.L37
 384              		.loc 1 115 82 discriminator 1
 385 021c 03B68700 		ld	a2,8(a5)
 386              		.loc 1 115 72 discriminator 1
 387 0220 93060601 		addi	a3,a2,16
 388              	.LVL46:
 389 0224 B386D700 		add	a3,a5,a3
 390              		.loc 1 115 35 discriminator 1
 391 0228 6308D70A 		beq	a4,a3,.L43
 392              	.LBE13:
 393              	.LBE12:
 116:src/MemoryAllocator.cpp ****                 freeBlk->size += freeBlk->next->size + sizeof(BlockHeader);
 117:src/MemoryAllocator.cpp ****                 freeBlk->next = freeBlk->next->next;
 118:src/MemoryAllocator.cpp ****             }
 119:src/MemoryAllocator.cpp ****         }
 120:src/MemoryAllocator.cpp ****     }
 121:src/MemoryAllocator.cpp ****     return 0;
 394              		.loc 1 121 12
 395 022c 13050000 		li	a0,0
 396              	.LVL47:
 397              	.L20:
 122:src/MemoryAllocator.cpp **** }
 398              		.loc 1 122 1
 399 0230 03348100 		ld	s0,8(sp)
 400              		.cfi_remember_state
 401              		.cfi_restore 8
GAS LISTING /tmp/cclaT7H7.s 			page 11


 402              		.cfi_def_cfa 2, 16
 403 0234 13010101 		addi	sp,sp,16
 404              		.cfi_def_cfa_offset 0
 405 0238 67800000 		jr	ra
 406              	.LVL48:
 407              	.L41:
 408              		.cfi_restore_state
 409              	.LBB20:
 410              	.LBB14:
  94:src/MemoryAllocator.cpp ****             freeMemHead = freeBlk;
 411              		.loc 1 94 13 is_stmt 1
  94:src/MemoryAllocator.cpp ****             freeMemHead = freeBlk;
 412              		.loc 1 94 27 is_stmt 0
 413 023c 23B0C700 		sd	a2,0(a5)
  95:src/MemoryAllocator.cpp **** 
 414              		.loc 1 95 13 is_stmt 1
  95:src/MemoryAllocator.cpp **** 
 415              		.loc 1 95 25 is_stmt 0
 416 0240 17070000 		sd	a5,.LANCHOR0+8,a4
 416      2330F700 
 417              	.LVL49:
  97:src/MemoryAllocator.cpp ****                 freeBlk->size += freeBlk->next->size + sizeof(BlockHeader);
 418              		.loc 1 97 13 is_stmt 1
  97:src/MemoryAllocator.cpp ****                 freeBlk->size += freeBlk->next->size + sizeof(BlockHeader);
 419              		.loc 1 97 25 is_stmt 0
 420 0248 03B70700 		ld	a4,0(a5)
  97:src/MemoryAllocator.cpp ****                 freeBlk->size += freeBlk->next->size + sizeof(BlockHeader);
 421              		.loc 1 97 13
 422 024c 6306070C 		beqz	a4,.L33
  97:src/MemoryAllocator.cpp ****                 freeBlk->size += freeBlk->next->size + sizeof(BlockHeader);
 423              		.loc 1 97 77 discriminator 1
 424 0250 03B68700 		ld	a2,8(a5)
  97:src/MemoryAllocator.cpp ****                 freeBlk->size += freeBlk->next->size + sizeof(BlockHeader);
 425              		.loc 1 97 67 discriminator 1
 426 0254 93060601 		addi	a3,a2,16
 427              	.LVL50:
 428 0258 B386D700 		add	a3,a5,a3
  97:src/MemoryAllocator.cpp ****                 freeBlk->size += freeBlk->next->size + sizeof(BlockHeader);
 429              		.loc 1 97 30 discriminator 1
 430 025c 6306D700 		beq	a4,a3,.L44
 431              	.LBE14:
 432              	.LBE20:
 121:src/MemoryAllocator.cpp **** }
 433              		.loc 1 121 12
 434 0260 13050000 		li	a0,0
 435              	.LVL51:
 436 0264 6FF0DFFC 		j	.L20
 437              	.LVL52:
 438              	.L44:
 439              	.LBB21:
 440              	.LBB15:
  98:src/MemoryAllocator.cpp ****                 freeBlk->next = freeBlk->next->next;
 441              		.loc 1 98 17 is_stmt 1
  98:src/MemoryAllocator.cpp ****                 freeBlk->next = freeBlk->next->next;
 442              		.loc 1 98 49 is_stmt 0
 443 0268 83368700 		ld	a3,8(a4)
  98:src/MemoryAllocator.cpp ****                 freeBlk->next = freeBlk->next->next;
GAS LISTING /tmp/cclaT7H7.s 			page 12


 444              		.loc 1 98 31
 445 026c B306D600 		add	a3,a2,a3
 446 0270 93860601 		addi	a3,a3,16
 447 0274 23B4D700 		sd	a3,8(a5)
  99:src/MemoryAllocator.cpp ****             }
 448              		.loc 1 99 17 is_stmt 1
  99:src/MemoryAllocator.cpp ****             }
 449              		.loc 1 99 48 is_stmt 0
 450 0278 03370700 		ld	a4,0(a4)
  99:src/MemoryAllocator.cpp ****             }
 451              		.loc 1 99 31
 452 027c 23B0E700 		sd	a4,0(a5)
 453              	.LBE15:
 454              	.LBE21:
 121:src/MemoryAllocator.cpp **** }
 455              		.loc 1 121 12
 456 0280 13050000 		li	a0,0
 457              	.LVL53:
 458              	.LBB22:
 459              	.LBB16:
 460 0284 6FF0DFFA 		j	.L20
 461              	.LVL54:
 462              	.L42:
 106:src/MemoryAllocator.cpp ****                 prev->next = freeBlk->next;
 463              		.loc 1 106 17 is_stmt 1
 106:src/MemoryAllocator.cpp ****                 prev->next = freeBlk->next;
 464              		.loc 1 106 40 is_stmt 0
 465 0288 03B78700 		ld	a4,8(a5)
 106:src/MemoryAllocator.cpp ****                 prev->next = freeBlk->next;
 466              		.loc 1 106 28
 467 028c 3306E600 		add	a2,a2,a4
 468 0290 13060601 		addi	a2,a2,16
 469 0294 23B4C600 		sd	a2,8(a3)
 107:src/MemoryAllocator.cpp ****                 //Try to merge current free block (previous + new free block) with next free block
 470              		.loc 1 107 17 is_stmt 1
 107:src/MemoryAllocator.cpp ****                 //Try to merge current free block (previous + new free block) with next free block
 471              		.loc 1 107 39 is_stmt 0
 472 0298 03B70700 		ld	a4,0(a5)
 107:src/MemoryAllocator.cpp ****                 //Try to merge current free block (previous + new free block) with next free block
 473              		.loc 1 107 28
 474 029c 23B0E600 		sd	a4,0(a3)
 109:src/MemoryAllocator.cpp ****                     prev->size += prev->next->size + sizeof(BlockHeader);
 475              		.loc 1 109 17 is_stmt 1
 476 02a0 63000708 		beqz	a4,.L35
 109:src/MemoryAllocator.cpp ****                     prev->size += prev->next->size + sizeof(BlockHeader);
 477              		.loc 1 109 71 is_stmt 0 discriminator 1
 478 02a4 93070601 		addi	a5,a2,16
 479              	.LVL55:
 480 02a8 B387F600 		add	a5,a3,a5
 109:src/MemoryAllocator.cpp ****                     prev->size += prev->next->size + sizeof(BlockHeader);
 481              		.loc 1 109 32 discriminator 1
 482 02ac 6306F700 		beq	a4,a5,.L45
 483              	.LBE16:
 484              	.LBE22:
 121:src/MemoryAllocator.cpp **** }
 485              		.loc 1 121 12
 486 02b0 13050000 		li	a0,0
GAS LISTING /tmp/cclaT7H7.s 			page 13


 487              	.LVL56:
 488 02b4 6FF0DFF7 		j	.L20
 489              	.LVL57:
 490              	.L45:
 491              	.LBB23:
 492              	.LBB17:
 110:src/MemoryAllocator.cpp ****                     prev->next = prev->next->next;
 493              		.loc 1 110 21 is_stmt 1
 110:src/MemoryAllocator.cpp ****                     prev->next = prev->next->next;
 494              		.loc 1 110 47 is_stmt 0
 495 02b8 83378700 		ld	a5,8(a4)
 110:src/MemoryAllocator.cpp ****                     prev->next = prev->next->next;
 496              		.loc 1 110 32
 497 02bc B307F600 		add	a5,a2,a5
 498 02c0 93870701 		addi	a5,a5,16
 499 02c4 23B4F600 		sd	a5,8(a3)
 111:src/MemoryAllocator.cpp ****                 }
 500              		.loc 1 111 21 is_stmt 1
 111:src/MemoryAllocator.cpp ****                 }
 501              		.loc 1 111 46 is_stmt 0
 502 02c8 83370700 		ld	a5,0(a4)
 111:src/MemoryAllocator.cpp ****                 }
 503              		.loc 1 111 32
 504 02cc 23B0F600 		sd	a5,0(a3)
 505              	.LBE17:
 506              	.LBE23:
 121:src/MemoryAllocator.cpp **** }
 507              		.loc 1 121 12
 508 02d0 13050000 		li	a0,0
 509              	.LVL58:
 510              	.LBB24:
 511              	.LBB18:
 512 02d4 6FF0DFF5 		j	.L20
 513              	.LVL59:
 514              	.L43:
 116:src/MemoryAllocator.cpp ****                 freeBlk->next = freeBlk->next->next;
 515              		.loc 1 116 17 is_stmt 1
 116:src/MemoryAllocator.cpp ****                 freeBlk->next = freeBlk->next->next;
 516              		.loc 1 116 49 is_stmt 0
 517 02d8 83368700 		ld	a3,8(a4)
 116:src/MemoryAllocator.cpp ****                 freeBlk->next = freeBlk->next->next;
 518              		.loc 1 116 31
 519 02dc B306D600 		add	a3,a2,a3
 520 02e0 93860601 		addi	a3,a3,16
 521 02e4 23B4D700 		sd	a3,8(a5)
 117:src/MemoryAllocator.cpp ****             }
 522              		.loc 1 117 17 is_stmt 1
 117:src/MemoryAllocator.cpp ****             }
 523              		.loc 1 117 48 is_stmt 0
 524 02e8 03370700 		ld	a4,0(a4)
 117:src/MemoryAllocator.cpp ****             }
 525              		.loc 1 117 31
 526 02ec 23B0E700 		sd	a4,0(a5)
 527              	.LBE18:
 528              	.LBE24:
 121:src/MemoryAllocator.cpp **** }
 529              		.loc 1 121 12
GAS LISTING /tmp/cclaT7H7.s 			page 14


 530 02f0 13050000 		li	a0,0
 531              	.LVL60:
 532              	.LBB25:
 533              	.LBB19:
 534 02f4 6FF0DFF3 		j	.L20
 535              	.LVL61:
 536              	.L29:
 537              	.LBE19:
 538              	.LBE25:
  69:src/MemoryAllocator.cpp ****     //if malloc hasn't been called before then there is nothing to free => code -2
 539              		.loc 1 69 60
 540 02f8 1305F0FF 		li	a0,-1
 541              	.LVL62:
 542 02fc 6FF05FF3 		j	.L20
 543              	.LVL63:
 544              	.L30:
 545 0300 1305F0FF 		li	a0,-1
 546              	.LVL64:
 547 0304 6FF0DFF2 		j	.L20
 548              	.LVL65:
 549              	.L31:
  71:src/MemoryAllocator.cpp **** 
 550              		.loc 1 71 28
 551 0308 1305E0FF 		li	a0,-2
 552              	.LVL66:
 553 030c 6FF05FF2 		j	.L20
 554              	.LVL67:
 555              	.L32:
 556              	.LBB26:
  81:src/MemoryAllocator.cpp ****     }else{
 557              		.loc 1 81 17
 558 0310 1305D0FF 		li	a0,-3
 559              	.LVL68:
 560 0314 6FF0DFF1 		j	.L20
 561              	.LVL69:
 562              	.L33:
 563              	.LBE26:
 121:src/MemoryAllocator.cpp **** }
 564              		.loc 1 121 12
 565 0318 13050000 		li	a0,0
 566              	.LVL70:
 567 031c 6FF05FF1 		j	.L20
 568              	.LVL71:
 569              	.L35:
 570 0320 13050000 		li	a0,0
 571              	.LVL72:
 572 0324 6FF0DFF0 		j	.L20
 573              	.LVL73:
 574              	.L37:
 575 0328 13050000 		li	a0,0
 576              	.LVL74:
 577 032c 6FF05FF0 		j	.L20
 578              		.cfi_endproc
 579              	.LFE4:
 581              		.globl	_ZN15MemoryAllocator10calledOnceE
 582              		.globl	_ZN15MemoryAllocator16allocatedMemHeadE
 583              		.globl	_ZN15MemoryAllocator11freeMemHeadE
GAS LISTING /tmp/cclaT7H7.s 			page 15


 584              		.bss
 585              		.align	3
 586              		.set	.LANCHOR0,. + 0
 589              	_ZN15MemoryAllocator10calledOnceE:
 590 0000 00       		.zero	1
 591 0001 00000000 		.zero	7
 591      000000
 594              	_ZN15MemoryAllocator11freeMemHeadE:
 595 0008 00000000 		.zero	8
 595      00000000 
 598              	_ZN15MemoryAllocator16allocatedMemHeadE:
 599 0010 00000000 		.zero	8
 599      00000000 
 600              		.text
 601              	.Letext0:
 602              		.file 2 "src/../h/../lib/hw.h"
 603              		.file 3 "src/../h/MemoryAllocator.hpp"
GAS LISTING /tmp/cclaT7H7.s 			page 16

