GAS LISTING /tmp/ccVyCUB5.s 			page 1


   1              		.file	"Scheduler.cpp"
   2              		.option pic
   3              		.option norelax
   4              		.text
   5              	.Ltext0:
   6              		.align	2
   7              		.globl	_ZN9Scheduler3getEv
   9              	_ZN9Scheduler3getEv:
  10              	.LFB14:
  11              		.file 1 "src/Scheduler.cpp"
   1:src/Scheduler.cpp **** #include "../h/Scheduler.hpp"
   2:src/Scheduler.cpp **** 
   3:src/Scheduler.cpp **** SchedulerNode* Scheduler::head, *Scheduler::tail;
   4:src/Scheduler.cpp **** 
   5:src/Scheduler.cpp **** SchedulerNode *Scheduler::get() {
  12              		.loc 1 5 33
  13              		.cfi_startproc
  14 0000 130101FF 		addi	sp,sp,-16
  15              		.cfi_def_cfa_offset 16
  16 0004 23348100 		sd	s0,8(sp)
  17              		.cfi_offset 8, -8
  18 0008 13040101 		addi	s0,sp,16
  19              		.cfi_def_cfa 8, 0
   6:src/Scheduler.cpp ****     if(!head)return nullptr;
  20              		.loc 1 6 5
  21              		.loc 1 6 8 is_stmt 0
  22 000c 17050000 		ld	a0,.LANCHOR0
  22      03350500 
  23              		.loc 1 6 5
  24 0014 630C0500 		beqz	a0,.L1
   7:src/Scheduler.cpp **** 
   8:src/Scheduler.cpp ****     SchedulerNode* elem = head;
  25              		.loc 1 8 5 is_stmt 1
  26              	.LVL0:
   9:src/Scheduler.cpp ****     head = head->next;
  27              		.loc 1 9 5
  28              		.loc 1 9 18 is_stmt 0
  29 0018 83378500 		ld	a5,8(a0)
  30              		.loc 1 9 10
  31 001c 17070000 		sd	a5,.LANCHOR0,a4
  31      2330F700 
  10:src/Scheduler.cpp **** 
  11:src/Scheduler.cpp ****     if(!head) tail = nullptr;
  32              		.loc 1 11 5 is_stmt 1
  33 0024 638A0700 		beqz	a5,.L5
  34              	.L3:
  12:src/Scheduler.cpp ****     elem->next = nullptr;
  35              		.loc 1 12 5
  36              		.loc 1 12 16 is_stmt 0
  37 0028 23340500 		sd	zero,8(a0)
  13:src/Scheduler.cpp ****     return elem;
  38              		.loc 1 13 5 is_stmt 1
  39              	.LVL1:
  40              	.L1:
  14:src/Scheduler.cpp **** }
  41              		.loc 1 14 1 is_stmt 0
  42 002c 03348100 		ld	s0,8(sp)
GAS LISTING /tmp/ccVyCUB5.s 			page 2


  43              		.cfi_remember_state
  44              		.cfi_restore 8
  45              		.cfi_def_cfa 2, 16
  46 0030 13010101 		addi	sp,sp,16
  47              		.cfi_def_cfa_offset 0
  48 0034 67800000 		jr	ra
  49              	.LVL2:
  50              	.L5:
  51              		.cfi_restore_state
  11:src/Scheduler.cpp ****     elem->next = nullptr;
  52              		.loc 1 11 15 is_stmt 1 discriminator 1
  11:src/Scheduler.cpp ****     elem->next = nullptr;
  53              		.loc 1 11 20 is_stmt 0 discriminator 1
  54 0038 97070000 		sd	zero,.LANCHOR0+8,a5
  54      23B00700 
  55 0040 6FF09FFE 		j	.L3
  56              		.cfi_endproc
  57              	.LFE14:
  59              		.align	2
  60              		.globl	_ZN9Scheduler3putEP13SchedulerNode
  62              	_ZN9Scheduler3putEP13SchedulerNode:
  63              	.LFB15:
  15:src/Scheduler.cpp **** void Scheduler::put(SchedulerNode *schedulerNode) {
  64              		.loc 1 15 51 is_stmt 1
  65              		.cfi_startproc
  66              	.LVL3:
  67 0044 130101FF 		addi	sp,sp,-16
  68              		.cfi_def_cfa_offset 16
  69 0048 23348100 		sd	s0,8(sp)
  70              		.cfi_offset 8, -8
  71 004c 13040101 		addi	s0,sp,16
  72              		.cfi_def_cfa 8, 0
  16:src/Scheduler.cpp **** 
  17:src/Scheduler.cpp ****     if(tail){
  73              		.loc 1 17 5
  74              		.loc 1 17 12 is_stmt 0
  75 0050 97070000 		ld	a5,.LANCHOR0+8
  75      83B70700 
  76              		.loc 1 17 5
  77 0058 638E0700 		beqz	a5,.L7
  18:src/Scheduler.cpp ****         tail->next = schedulerNode;
  78              		.loc 1 18 9 is_stmt 1
  79              		.loc 1 18 20 is_stmt 0
  80 005c 23B4A700 		sd	a0,8(a5)
  19:src/Scheduler.cpp ****         tail = schedulerNode;
  81              		.loc 1 19 9 is_stmt 1
  82              		.loc 1 19 14 is_stmt 0
  83 0060 97070000 		sd	a0,.LANCHOR0+8,a5
  83      23B0A700 
  84              	.L6:
  20:src/Scheduler.cpp ****     }else{
  21:src/Scheduler.cpp ****         head = tail = schedulerNode;
  22:src/Scheduler.cpp ****     }
  23:src/Scheduler.cpp **** }
  85              		.loc 1 23 1
  86 0068 03348100 		ld	s0,8(sp)
  87              		.cfi_remember_state
GAS LISTING /tmp/ccVyCUB5.s 			page 3


  88              		.cfi_restore 8
  89              		.cfi_def_cfa 2, 16
  90 006c 13010101 		addi	sp,sp,16
  91              		.cfi_def_cfa_offset 0
  92 0070 67800000 		jr	ra
  93              	.L7:
  94              		.cfi_restore_state
  21:src/Scheduler.cpp ****     }
  95              		.loc 1 21 9 is_stmt 1
  21:src/Scheduler.cpp ****     }
  96              		.loc 1 21 21 is_stmt 0
  97 0074 97070000 		lla	a5,.LANCHOR0
  97      93870700 
  98 007c 23B4A700 		sd	a0,8(a5)
  21:src/Scheduler.cpp ****     }
  99              		.loc 1 21 14
 100 0080 23B0A700 		sd	a0,0(a5)
 101              		.loc 1 23 1
 102 0084 6FF05FFE 		j	.L6
 103              		.cfi_endproc
 104              	.LFE15:
 106              		.globl	_ZN9Scheduler4tailE
 107              		.globl	_ZN9Scheduler4headE
 108              		.bss
 109              		.align	3
 110              		.set	.LANCHOR0,. + 0
 113              	_ZN9Scheduler4headE:
 114 0000 00000000 		.zero	8
 114      00000000 
 117              	_ZN9Scheduler4tailE:
 118 0008 00000000 		.zero	8
 118      00000000 
 119              		.text
 120              	.Letext0:
 121              		.file 2 "src/../h/../lib/hw.h"
 122              		.file 3 "src/../h/SchedulerNode.hpp"
 123              		.file 4 "src/../h/Scheduler.hpp"
GAS LISTING /tmp/ccVyCUB5.s 			page 4

