GAS LISTING /tmp/ccH1FaDF.s 			page 1


   1              		.file	"SemaphoreBase.cpp"
   2              		.option pic
   3              		.option norelax
   4              		.text
   5              	.Ltext0:
   6              		.align	2
   7              		.globl	_ZN13SemaphoreBaseC2Ei
   9              	_ZN13SemaphoreBaseC2Ei:
  10              	.LFB22:
  11              		.file 1 "src/SemaphoreBase.cpp"
   1:src/SemaphoreBase.cpp **** //
   2:src/SemaphoreBase.cpp **** // Created by os on 5/20/22.
   3:src/SemaphoreBase.cpp **** //
   4:src/SemaphoreBase.cpp **** 
   5:src/SemaphoreBase.cpp **** #include "../h/SemaphoreBase.hpp"
   6:src/SemaphoreBase.cpp **** #include "../h/Scheduler.hpp"
   7:src/SemaphoreBase.cpp **** #include "../h/TCB.hpp"
   8:src/SemaphoreBase.cpp **** 
   9:src/SemaphoreBase.cpp **** SemaphoreBase::SemaphoreBase(int v):val(v), head(nullptr), tail(nullptr){
  12              		.loc 1 9 1
  13              		.cfi_startproc
  14              	.LVL0:
  15 0000 130101FF 		addi	sp,sp,-16
  16              		.cfi_def_cfa_offset 16
  17 0004 23348100 		sd	s0,8(sp)
  18              		.cfi_offset 8, -8
  19 0008 13040101 		addi	s0,sp,16
  20              		.cfi_def_cfa 8, 0
  21              	.LBB6:
  22              		.loc 1 9 72 is_stmt 0
  23 000c 23200500 		sw	zero,0(a0)
  24 0010 2322B500 		sw	a1,4(a0)
  25 0014 23340500 		sd	zero,8(a0)
  26 0018 23380500 		sd	zero,16(a0)
  27              	.LBE6:
  10:src/SemaphoreBase.cpp **** 
  11:src/SemaphoreBase.cpp **** }
  28              		.loc 1 11 1
  29 001c 03348100 		ld	s0,8(sp)
  30              		.cfi_restore 8
  31              		.cfi_def_cfa 2, 16
  32 0020 13010101 		addi	sp,sp,16
  33              		.cfi_def_cfa_offset 0
  34 0024 67800000 		jr	ra
  35              		.cfi_endproc
  36              	.LFE22:
  38              		.globl	_ZN13SemaphoreBaseC1Ei
  39              		.set	_ZN13SemaphoreBaseC1Ei,_ZN13SemaphoreBaseC2Ei
  40              		.align	2
  41              		.globl	_ZN13SemaphoreBase48contextSwitchWithoutSavingRunningNodeInSchedulerEv
  43              	_ZN13SemaphoreBase48contextSwitchWithoutSavingRunningNodeInSchedulerEv:
  44              	.LFB24:
  12:src/SemaphoreBase.cpp **** 
  13:src/SemaphoreBase.cpp **** void SemaphoreBase::contextSwitchWithoutSavingRunningNodeInScheduler(){
  45              		.loc 1 13 71 is_stmt 1
  46              		.cfi_startproc
  47 0028 130101FE 		addi	sp,sp,-32
GAS LISTING /tmp/ccH1FaDF.s 			page 2


  48              		.cfi_def_cfa_offset 32
  49 002c 233C1100 		sd	ra,24(sp)
  50 0030 23388100 		sd	s0,16(sp)
  51 0034 23349100 		sd	s1,8(sp)
  52 0038 23302101 		sd	s2,0(sp)
  53              		.cfi_offset 1, -8
  54              		.cfi_offset 8, -16
  55              		.cfi_offset 9, -24
  56              		.cfi_offset 18, -32
  57 003c 13040102 		addi	s0,sp,32
  58              		.cfi_def_cfa 8, 0
  14:src/SemaphoreBase.cpp ****     pushRegisters();
  59              		.loc 1 14 5
  60              		.loc 1 14 18 is_stmt 0
  61 0040 97000000 		call	_ZN13SemaphoreBase13pushRegistersEv@plt
  61      E7800000 
  62              	.LVL1:
  15:src/SemaphoreBase.cpp **** 
  16:src/SemaphoreBase.cpp ****     TCB* old = TCB::running;
  63              		.loc 1 16 5 is_stmt 1
  64              		.loc 1 16 10 is_stmt 0
  65 0048 97040000 		la	s1,_ZN3TCB7runningE
  65      83B40400 
  66 0050 03B90400 		ld	s2,0(s1)
  67              	.LVL2:
  17:src/SemaphoreBase.cpp ****     TCB::numberOfActiveThreads--;
  68              		.loc 1 17 5 is_stmt 1
  69              		.loc 1 17 31 is_stmt 0
  70 0054 17070000 		la	a4,_ZN3TCB21numberOfActiveThreadsE
  70      03370700 
  71 005c 83370700 		ld	a5,0(a4)
  72 0060 9387F7FF 		addi	a5,a5,-1
  73 0064 2330F700 		sd	a5,0(a4)
  18:src/SemaphoreBase.cpp **** 
  19:src/SemaphoreBase.cpp ****     TCB::running = Scheduler::get()->data;
  74              		.loc 1 19 5 is_stmt 1
  75              		.loc 1 19 34 is_stmt 0
  76 0068 97000000 		call	_ZN9Scheduler3getEv@plt
  76      E7800000 
  77              	.LVL3:
  78              		.loc 1 19 38
  79 0070 83350500 		ld	a1,0(a0)
  80              		.loc 1 19 18
  81 0074 23B0B400 		sd	a1,0(s1)
  20:src/SemaphoreBase.cpp ****     TCB::contextSwitch(&old->context, &TCB::running->context);
  82              		.loc 1 20 5 is_stmt 1
  83              		.loc 1 20 23 is_stmt 0
  84 0078 93850501 		addi	a1,a1,16
  85 007c 13050901 		addi	a0,s2,16
  86 0080 97000000 		call	_ZN3TCB13contextSwitchEPNS_7ContextES1_@plt
  86      E7800000 
  87              	.LVL4:
  21:src/SemaphoreBase.cpp **** 
  22:src/SemaphoreBase.cpp ****     popRegisters();
  88              		.loc 1 22 5 is_stmt 1
  89              		.loc 1 22 17 is_stmt 0
  90 0088 97000000 		call	_ZN13SemaphoreBase12popRegistersEv@plt
GAS LISTING /tmp/ccH1FaDF.s 			page 3


  90      E7800000 
  91              	.LVL5:
  23:src/SemaphoreBase.cpp **** }
  92              		.loc 1 23 1
  93 0090 83308101 		ld	ra,24(sp)
  94              		.cfi_restore 1
  95 0094 03340101 		ld	s0,16(sp)
  96              		.cfi_restore 8
  97              		.cfi_def_cfa 2, 32
  98 0098 83348100 		ld	s1,8(sp)
  99              		.cfi_restore 9
 100 009c 03390100 		ld	s2,0(sp)
 101              		.cfi_restore 18
 102              	.LVL6:
 103 00a0 13010102 		addi	sp,sp,32
 104              		.cfi_def_cfa_offset 0
 105 00a4 67800000 		jr	ra
 106              		.cfi_endproc
 107              	.LFE24:
 109              		.align	2
 110              		.globl	_ZN13SemaphoreBase5blockEv
 112              	_ZN13SemaphoreBase5blockEv:
 113              	.LFB28:
  24:src/SemaphoreBase.cpp **** 
  25:src/SemaphoreBase.cpp **** int SemaphoreBase::close() {
  26:src/SemaphoreBase.cpp ****     if(closed)return -2;
  27:src/SemaphoreBase.cpp ****     closed = 1;
  28:src/SemaphoreBase.cpp **** 
  29:src/SemaphoreBase.cpp ****     if(!head)return 0;
  30:src/SemaphoreBase.cpp ****     while(head) {
  31:src/SemaphoreBase.cpp ****         head->waitingWhileClosedSem = 1;
  32:src/SemaphoreBase.cpp ****         int status = unblock();
  33:src/SemaphoreBase.cpp ****         if(status<0)return status;
  34:src/SemaphoreBase.cpp ****     }
  35:src/SemaphoreBase.cpp **** 
  36:src/SemaphoreBase.cpp ****     return 0;
  37:src/SemaphoreBase.cpp **** }
  38:src/SemaphoreBase.cpp **** 
  39:src/SemaphoreBase.cpp **** int SemaphoreBase::wait() {
  40:src/SemaphoreBase.cpp ****     if(--val < 0) {
  41:src/SemaphoreBase.cpp ****         int status = block();
  42:src/SemaphoreBase.cpp ****         return status;
  43:src/SemaphoreBase.cpp ****     }
  44:src/SemaphoreBase.cpp ****     return 0;
  45:src/SemaphoreBase.cpp **** }
  46:src/SemaphoreBase.cpp **** 
  47:src/SemaphoreBase.cpp **** int SemaphoreBase::signal() {
  48:src/SemaphoreBase.cpp ****     if(++val <= 0) {
  49:src/SemaphoreBase.cpp ****         int status = unblock();
  50:src/SemaphoreBase.cpp ****         return status;
  51:src/SemaphoreBase.cpp ****     }
  52:src/SemaphoreBase.cpp ****     return 0;
  53:src/SemaphoreBase.cpp **** }
  54:src/SemaphoreBase.cpp **** 
  55:src/SemaphoreBase.cpp **** int SemaphoreBase::block(){
 114              		.loc 1 55 27 is_stmt 1
 115              		.cfi_startproc
GAS LISTING /tmp/ccH1FaDF.s 			page 4


 116              	.LVL7:
 117 00a8 130101FD 		addi	sp,sp,-48
 118              		.cfi_def_cfa_offset 48
 119 00ac 23341102 		sd	ra,40(sp)
 120 00b0 23308102 		sd	s0,32(sp)
 121 00b4 233C9100 		sd	s1,24(sp)
 122 00b8 23382101 		sd	s2,16(sp)
 123 00bc 23343101 		sd	s3,8(sp)
 124              		.cfi_offset 1, -8
 125              		.cfi_offset 8, -16
 126              		.cfi_offset 9, -24
 127              		.cfi_offset 18, -32
 128              		.cfi_offset 19, -40
 129 00c0 13040103 		addi	s0,sp,48
 130              		.cfi_def_cfa 8, 0
 131 00c4 13090500 		mv	s2,a0
  56:src/SemaphoreBase.cpp ****     TCB* old = TCB::running;
 132              		.loc 1 56 5
 133              		.loc 1 56 10 is_stmt 0
 134 00c8 97070000 		la	a5,_ZN3TCB7runningE
 134      83B70700 
 135 00d0 83B90700 		ld	s3,0(a5)
 136              	.LVL8:
  57:src/SemaphoreBase.cpp ****     SemaphoreNode* node = SemaphoreNode::createNode(old, nullptr);//new SemaphoreNode(old, nullptr)
 137              		.loc 1 57 5 is_stmt 1
 138              	.LBB7:
 139              	.LBB8:
 140              		.file 2 "src/../h/SemaphoreNode.hpp"
   1:src/../h/SemaphoreNode.hpp **** #ifndef SEMAPHORENODE_HPP
   2:src/../h/SemaphoreNode.hpp **** #define SEMAPHORENODE_HPP
   3:src/../h/SemaphoreNode.hpp **** 
   4:src/../h/SemaphoreNode.hpp **** #include "kernel_functions.hpp"
   5:src/../h/SemaphoreNode.hpp **** 
   6:src/../h/SemaphoreNode.hpp **** class TCB;
   7:src/../h/SemaphoreNode.hpp **** class SemaphoreNode{
   8:src/../h/SemaphoreNode.hpp ****     TCB* data;
   9:src/../h/SemaphoreNode.hpp ****     SemaphoreNode* next;
  10:src/../h/SemaphoreNode.hpp ****     int waitingWhileClosedSem = 0; // if Node is waiting and then semaphore is closed -> 1, after t
  11:src/../h/SemaphoreNode.hpp ****     //SemaphoreNode(TCB* data, SemaphoreNode* next):data(data), next(next){}
  12:src/../h/SemaphoreNode.hpp **** 
  13:src/../h/SemaphoreNode.hpp ****     static SemaphoreNode* createNode(TCB* tcb, SemaphoreNode* nxt){
  14:src/../h/SemaphoreNode.hpp ****         SemaphoreNode* p = (SemaphoreNode*) kmem_alloc(sizeof(SemaphoreNode));
 141              		.loc 2 14 9
 142              		.loc 2 14 55 is_stmt 0
 143 00d4 13058001 		li	a0,24
 144              	.LVL9:
 145 00d8 97000000 		call	_Z10kmem_allocm@plt
 145      E7800000 
 146              	.LVL10:
 147 00e0 93040500 		mv	s1,a0
 148              	.LVL11:
  15:src/../h/SemaphoreNode.hpp ****         p->data = tcb;
 149              		.loc 2 15 9 is_stmt 1
 150              		.loc 2 15 17 is_stmt 0
 151 00e4 23303501 		sd	s3,0(a0)
  16:src/../h/SemaphoreNode.hpp ****         p->next = nxt;
 152              		.loc 2 16 9 is_stmt 1
GAS LISTING /tmp/ccH1FaDF.s 			page 5


 153              		.loc 2 16 17 is_stmt 0
 154 00e8 23340500 		sd	zero,8(a0)
  17:src/../h/SemaphoreNode.hpp ****         return p;
 155              		.loc 2 17 9 is_stmt 1
 156              	.LVL12:
 157              	.LBE8:
 158              	.LBE7:
  58:src/SemaphoreBase.cpp ****     if(tail){
 159              		.loc 1 58 5
 160              		.loc 1 58 8 is_stmt 0
 161 00ec 83370901 		ld	a5,16(s2)
 162              		.loc 1 58 5
 163 00f0 63880704 		beqz	a5,.L6
  59:src/SemaphoreBase.cpp ****         tail->next = node;
 164              		.loc 1 59 9 is_stmt 1
 165              		.loc 1 59 20 is_stmt 0
 166 00f4 23B4A700 		sd	a0,8(a5)
  60:src/SemaphoreBase.cpp ****         tail = node;
 167              		.loc 1 60 9 is_stmt 1
 168              		.loc 1 60 14 is_stmt 0
 169 00f8 2338A900 		sd	a0,16(s2)
 170              	.L7:
  61:src/SemaphoreBase.cpp ****     }else{
  62:src/SemaphoreBase.cpp ****         head = tail = node;
  63:src/SemaphoreBase.cpp ****     }
  64:src/SemaphoreBase.cpp **** 
  65:src/SemaphoreBase.cpp ****     contextSwitchWithoutSavingRunningNodeInScheduler();
 171              		.loc 1 65 5 is_stmt 1
 172              		.loc 1 65 53 is_stmt 0
 173 00fc 97000000 		call	_ZN13SemaphoreBase48contextSwitchWithoutSavingRunningNodeInSchedulerEv
 173      E7800000 
 174              	.LVL13:
  66:src/SemaphoreBase.cpp ****     int status = node->waitingWhileClosedSem;
 175              		.loc 1 66 5 is_stmt 1
 176              		.loc 1 66 9 is_stmt 0
 177 0104 03A90401 		lw	s2,16(s1)
 178              	.LVL14:
  67:src/SemaphoreBase.cpp ****     node->data = nullptr;
 179              		.loc 1 67 5 is_stmt 1
 180              		.loc 1 67 16 is_stmt 0
 181 0108 23B00400 		sd	zero,0(s1)
  68:src/SemaphoreBase.cpp ****     node->next = nullptr;
 182              		.loc 1 68 5 is_stmt 1
 183              		.loc 1 68 16 is_stmt 0
 184 010c 23B40400 		sd	zero,8(s1)
  69:src/SemaphoreBase.cpp ****     SemaphoreNode::deleteNode(node);
 185              		.loc 1 69 5 is_stmt 1
 186              	.LVL15:
 187              	.LBB9:
 188              	.LBB10:
  18:src/../h/SemaphoreNode.hpp ****     }
  19:src/../h/SemaphoreNode.hpp **** 
  20:src/../h/SemaphoreNode.hpp ****     static void deleteNode(SemaphoreNode* node){
  21:src/../h/SemaphoreNode.hpp ****         node->data = nullptr;
 189              		.loc 2 21 9
  22:src/../h/SemaphoreNode.hpp ****         node->next = nullptr;
 190              		.loc 2 22 9
GAS LISTING /tmp/ccH1FaDF.s 			page 6


  23:src/../h/SemaphoreNode.hpp ****         kmem_free(node);
 191              		.loc 2 23 9
 192              		.loc 2 23 18 is_stmt 0
 193 0110 13850400 		mv	a0,s1
 194 0114 97000000 		call	_Z9kmem_freePv@plt
 194      E7800000 
 195              	.LVL16:
 196              	.LBE10:
 197              	.LBE9:
  70:src/SemaphoreBase.cpp **** 
  71:src/SemaphoreBase.cpp ****     if(status == 0)return 0;
 198              		.loc 1 71 5 is_stmt 1
 199 011c 63180902 		bnez	s2,.L10
 200              	.LVL17:
 201              	.L8:
  72:src/SemaphoreBase.cpp ****     return -1;
  73:src/SemaphoreBase.cpp **** }
 202              		.loc 1 73 1 is_stmt 0
 203 0120 13050900 		mv	a0,s2
 204 0124 83308102 		ld	ra,40(sp)
 205              		.cfi_remember_state
 206              		.cfi_restore 1
 207 0128 03340102 		ld	s0,32(sp)
 208              		.cfi_restore 8
 209              		.cfi_def_cfa 2, 48
 210 012c 83348101 		ld	s1,24(sp)
 211              		.cfi_restore 9
 212              	.LVL18:
 213 0130 03390101 		ld	s2,16(sp)
 214              		.cfi_restore 18
 215 0134 83398100 		ld	s3,8(sp)
 216              		.cfi_restore 19
 217              	.LVL19:
 218 0138 13010103 		addi	sp,sp,48
 219              		.cfi_def_cfa_offset 0
 220 013c 67800000 		jr	ra
 221              	.LVL20:
 222              	.L6:
 223              		.cfi_restore_state
  62:src/SemaphoreBase.cpp ****     }
 224              		.loc 1 62 9 is_stmt 1
  62:src/SemaphoreBase.cpp ****     }
 225              		.loc 1 62 21 is_stmt 0
 226 0140 2338A900 		sd	a0,16(s2)
  62:src/SemaphoreBase.cpp ****     }
 227              		.loc 1 62 14
 228 0144 2334A900 		sd	a0,8(s2)
 229 0148 6FF05FFB 		j	.L7
 230              	.LVL21:
 231              	.L10:
  72:src/SemaphoreBase.cpp ****     return -1;
 232              		.loc 1 72 13
 233 014c 1309F0FF 		li	s2,-1
 234              	.LVL22:
 235 0150 6FF01FFD 		j	.L8
 236              		.cfi_endproc
 237              	.LFE28:
GAS LISTING /tmp/ccH1FaDF.s 			page 7


 239              		.align	2
 240              		.globl	_ZN13SemaphoreBase4waitEv
 242              	_ZN13SemaphoreBase4waitEv:
 243              	.LFB26:
  39:src/SemaphoreBase.cpp ****     if(--val < 0) {
 244              		.loc 1 39 27 is_stmt 1
 245              		.cfi_startproc
 246              	.LVL23:
  40:src/SemaphoreBase.cpp ****         int status = block();
 247              		.loc 1 40 5
 248              	.LBB11:
  40:src/SemaphoreBase.cpp ****         int status = block();
 249              		.loc 1 40 10 is_stmt 0
 250 0154 83274500 		lw	a5,4(a0)
  40:src/SemaphoreBase.cpp ****         int status = block();
 251              		.loc 1 40 8
 252 0158 9B87F7FF 		addiw	a5,a5,-1
  40:src/SemaphoreBase.cpp ****         int status = block();
 253              		.loc 1 40 14
 254 015c 2322F500 		sw	a5,4(a0)
  40:src/SemaphoreBase.cpp ****         int status = block();
 255              		.loc 1 40 5
 256 0160 13970702 		slli	a4,a5,32
 257 0164 63460700 		bltz	a4,.L18
 258              	.LBE11:
  44:src/SemaphoreBase.cpp **** }
 259              		.loc 1 44 12
 260 0168 13050000 		li	a0,0
 261              	.LVL24:
  45:src/SemaphoreBase.cpp **** 
 262              		.loc 1 45 1
 263 016c 67800000 		ret
 264              	.LVL25:
 265              	.L18:
  39:src/SemaphoreBase.cpp ****     if(--val < 0) {
 266              		.loc 1 39 27
 267 0170 130101FF 		addi	sp,sp,-16
 268              		.cfi_def_cfa_offset 16
 269 0174 23341100 		sd	ra,8(sp)
 270 0178 23308100 		sd	s0,0(sp)
 271              		.cfi_offset 1, -8
 272              		.cfi_offset 8, -16
 273 017c 13040101 		addi	s0,sp,16
 274              		.cfi_def_cfa 8, 0
 275              	.LBB13:
 276              	.LBB12:
  41:src/SemaphoreBase.cpp ****         return status;
 277              		.loc 1 41 9 is_stmt 1
  41:src/SemaphoreBase.cpp ****         return status;
 278              		.loc 1 41 27 is_stmt 0
 279 0180 97000000 		call	_ZN13SemaphoreBase5blockEv
 279      E7800000 
 280              	.LVL26:
  42:src/SemaphoreBase.cpp ****     }
 281              		.loc 1 42 9 is_stmt 1
 282              	.LBE12:
 283              	.LBE13:
GAS LISTING /tmp/ccH1FaDF.s 			page 8


  45:src/SemaphoreBase.cpp **** 
 284              		.loc 1 45 1 is_stmt 0
 285 0188 83308100 		ld	ra,8(sp)
 286              		.cfi_restore 1
 287 018c 03340100 		ld	s0,0(sp)
 288              		.cfi_restore 8
 289              		.cfi_def_cfa 2, 16
 290 0190 13010101 		addi	sp,sp,16
 291              		.cfi_def_cfa_offset 0
 292 0194 67800000 		jr	ra
 293              		.cfi_endproc
 294              	.LFE26:
 296              		.align	2
 297              		.globl	_ZN13SemaphoreBase7unblockEv
 299              	_ZN13SemaphoreBase7unblockEv:
 300              	.LFB29:
  74:src/SemaphoreBase.cpp **** 
  75:src/SemaphoreBase.cpp **** int SemaphoreBase::unblock(){
 301              		.loc 1 75 29 is_stmt 1
 302              		.cfi_startproc
 303              	.LVL27:
  76:src/SemaphoreBase.cpp ****     if(!head)return -1;
 304              		.loc 1 76 5
 305              		.loc 1 76 9 is_stmt 0
 306 0198 83378500 		ld	a5,8(a0)
 307              		.loc 1 76 5
 308 019c 63860704 		beqz	a5,.L22
  75:src/SemaphoreBase.cpp ****     if(!head)return -1;
 309              		.loc 1 75 29
 310 01a0 130101FF 		addi	sp,sp,-16
 311              		.cfi_def_cfa_offset 16
 312 01a4 23341100 		sd	ra,8(sp)
 313 01a8 23308100 		sd	s0,0(sp)
 314              		.cfi_offset 1, -8
 315              		.cfi_offset 8, -16
 316 01ac 13040101 		addi	s0,sp,16
 317              		.cfi_def_cfa 8, 0
  77:src/SemaphoreBase.cpp **** 
  78:src/SemaphoreBase.cpp ****     SemaphoreNode* elem = head;
 318              		.loc 1 78 5 is_stmt 1
 319              	.LVL28:
  79:src/SemaphoreBase.cpp ****     head = head->next;
 320              		.loc 1 79 5
 321              		.loc 1 79 18 is_stmt 0
 322 01b0 03B78700 		ld	a4,8(a5)
 323              		.loc 1 79 10
 324 01b4 2334E500 		sd	a4,8(a0)
  80:src/SemaphoreBase.cpp **** 
  81:src/SemaphoreBase.cpp ****     if(!head) tail = nullptr;
 325              		.loc 1 81 5 is_stmt 1
 326 01b8 63040702 		beqz	a4,.L27
 327              	.L21:
  82:src/SemaphoreBase.cpp **** 
  83:src/SemaphoreBase.cpp ****     Scheduler::put(&elem->data->schedulerNode);
 328              		.loc 1 83 5
 329              		.loc 1 83 27 is_stmt 0
 330 01bc 03B50700 		ld	a0,0(a5)
GAS LISTING /tmp/ccH1FaDF.s 			page 9


 331              	.LVL29:
 332              		.loc 1 83 19
 333 01c0 13058502 		addi	a0,a0,40
 334 01c4 97000000 		call	_ZN9Scheduler3putEP13SchedulerNode@plt
 334      E7800000 
 335              	.LVL30:
  84:src/SemaphoreBase.cpp ****     return 0;
 336              		.loc 1 84 5 is_stmt 1
 337              		.loc 1 84 12 is_stmt 0
 338 01cc 13050000 		li	a0,0
  85:src/SemaphoreBase.cpp **** }
 339              		.loc 1 85 1
 340 01d0 83308100 		ld	ra,8(sp)
 341              		.cfi_remember_state
 342              		.cfi_restore 1
 343 01d4 03340100 		ld	s0,0(sp)
 344              		.cfi_restore 8
 345              		.cfi_def_cfa 2, 16
 346 01d8 13010101 		addi	sp,sp,16
 347              		.cfi_def_cfa_offset 0
 348 01dc 67800000 		jr	ra
 349              	.LVL31:
 350              	.L27:
 351              		.cfi_restore_state
  81:src/SemaphoreBase.cpp **** 
 352              		.loc 1 81 15 is_stmt 1 discriminator 1
  81:src/SemaphoreBase.cpp **** 
 353              		.loc 1 81 20 is_stmt 0 discriminator 1
 354 01e0 23380500 		sd	zero,16(a0)
 355 01e4 6FF09FFD 		j	.L21
 356              	.LVL32:
 357              	.L22:
 358              		.cfi_def_cfa_register 2
 359              		.cfi_restore 1
 360              		.cfi_restore 8
  76:src/SemaphoreBase.cpp **** 
 361              		.loc 1 76 22
 362 01e8 1305F0FF 		li	a0,-1
 363              	.LVL33:
 364              		.loc 1 85 1
 365 01ec 67800000 		ret
 366              		.cfi_endproc
 367              	.LFE29:
 369              		.align	2
 370              		.globl	_ZN13SemaphoreBase5closeEv
 372              	_ZN13SemaphoreBase5closeEv:
 373              	.LFB25:
  25:src/SemaphoreBase.cpp ****     if(closed)return -2;
 374              		.loc 1 25 28 is_stmt 1
 375              		.cfi_startproc
 376              	.LVL34:
 377 01f0 130101FE 		addi	sp,sp,-32
 378              		.cfi_def_cfa_offset 32
 379 01f4 233C1100 		sd	ra,24(sp)
 380 01f8 23388100 		sd	s0,16(sp)
 381 01fc 23349100 		sd	s1,8(sp)
 382 0200 23302101 		sd	s2,0(sp)
GAS LISTING /tmp/ccH1FaDF.s 			page 10


 383              		.cfi_offset 1, -8
 384              		.cfi_offset 8, -16
 385              		.cfi_offset 9, -24
 386              		.cfi_offset 18, -32
 387 0204 13040102 		addi	s0,sp,32
 388              		.cfi_def_cfa 8, 0
  26:src/SemaphoreBase.cpp ****     closed = 1;
 389              		.loc 1 26 5
  26:src/SemaphoreBase.cpp ****     closed = 1;
 390              		.loc 1 26 8 is_stmt 0
 391 0208 03290500 		lw	s2,0(a0)
  26:src/SemaphoreBase.cpp ****     closed = 1;
 392              		.loc 1 26 5
 393 020c 631C0904 		bnez	s2,.L31
 394 0210 93040500 		mv	s1,a0
  27:src/SemaphoreBase.cpp **** 
 395              		.loc 1 27 5 is_stmt 1
  27:src/SemaphoreBase.cpp **** 
 396              		.loc 1 27 12 is_stmt 0
 397 0214 93071000 		li	a5,1
 398 0218 2320F500 		sw	a5,0(a0)
  29:src/SemaphoreBase.cpp ****     while(head) {
 399              		.loc 1 29 5 is_stmt 1
  29:src/SemaphoreBase.cpp ****     while(head) {
 400              		.loc 1 29 9 is_stmt 0
 401 021c 83378500 		ld	a5,8(a0)
  29:src/SemaphoreBase.cpp ****     while(head) {
 402              		.loc 1 29 5
 403 0220 63840702 		beqz	a5,.L29
 404              	.LVL35:
 405              	.L30:
  30:src/SemaphoreBase.cpp ****         head->waitingWhileClosedSem = 1;
 406              		.loc 1 30 5 is_stmt 1
  30:src/SemaphoreBase.cpp ****         head->waitingWhileClosedSem = 1;
 407              		.loc 1 30 11
 408 0224 83B78400 		ld	a5,8(s1)
 409 0228 63800702 		beqz	a5,.L29
 410              	.LBB14:
  31:src/SemaphoreBase.cpp ****         int status = unblock();
 411              		.loc 1 31 9
  31:src/SemaphoreBase.cpp ****         int status = unblock();
 412              		.loc 1 31 37 is_stmt 0
 413 022c 13071000 		li	a4,1
 414 0230 23A8E700 		sw	a4,16(a5)
  32:src/SemaphoreBase.cpp ****         if(status<0)return status;
 415              		.loc 1 32 9 is_stmt 1
  32:src/SemaphoreBase.cpp ****         if(status<0)return status;
 416              		.loc 1 32 29 is_stmt 0
 417 0234 13850400 		mv	a0,s1
 418 0238 97000000 		call	_ZN13SemaphoreBase7unblockEv
 418      E7800000 
 419              	.LVL36:
  33:src/SemaphoreBase.cpp ****     }
 420              		.loc 1 33 9 is_stmt 1
 421 0240 E35205FE 		bgez	a0,.L30
  33:src/SemaphoreBase.cpp ****     }
 422              		.loc 1 33 28 is_stmt 0
GAS LISTING /tmp/ccH1FaDF.s 			page 11


 423 0244 13090500 		mv	s2,a0
 424              	.LVL37:
 425              	.L29:
 426              	.LBE14:
  37:src/SemaphoreBase.cpp **** 
 427              		.loc 1 37 1
 428 0248 13050900 		mv	a0,s2
 429 024c 83308101 		ld	ra,24(sp)
 430              		.cfi_remember_state
 431              		.cfi_restore 1
 432 0250 03340101 		ld	s0,16(sp)
 433              		.cfi_restore 8
 434              		.cfi_def_cfa 2, 32
 435 0254 83348100 		ld	s1,8(sp)
 436              		.cfi_restore 9
 437 0258 03390100 		ld	s2,0(sp)
 438              		.cfi_restore 18
 439 025c 13010102 		addi	sp,sp,32
 440              		.cfi_def_cfa_offset 0
 441 0260 67800000 		jr	ra
 442              	.LVL38:
 443              	.L31:
 444              		.cfi_restore_state
  26:src/SemaphoreBase.cpp ****     closed = 1;
 445              		.loc 1 26 23
 446 0264 1309E0FF 		li	s2,-2
 447 0268 6FF01FFE 		j	.L29
 448              		.cfi_endproc
 449              	.LFE25:
 451              		.align	2
 452              		.globl	_ZN13SemaphoreBase6signalEv
 454              	_ZN13SemaphoreBase6signalEv:
 455              	.LFB27:
  47:src/SemaphoreBase.cpp ****     if(++val <= 0) {
 456              		.loc 1 47 29 is_stmt 1
 457              		.cfi_startproc
 458              	.LVL39:
  48:src/SemaphoreBase.cpp ****         int status = unblock();
 459              		.loc 1 48 5
 460              	.LBB15:
  48:src/SemaphoreBase.cpp ****         int status = unblock();
 461              		.loc 1 48 10 is_stmt 0
 462 026c 83274500 		lw	a5,4(a0)
  48:src/SemaphoreBase.cpp ****         int status = unblock();
 463              		.loc 1 48 8
 464 0270 9B871700 		addiw	a5,a5,1
 465 0274 1B870700 		sext.w	a4,a5
  48:src/SemaphoreBase.cpp ****         int status = unblock();
 466              		.loc 1 48 14
 467 0278 2322F500 		sw	a5,4(a0)
  48:src/SemaphoreBase.cpp ****         int status = unblock();
 468              		.loc 1 48 5
 469 027c 6356E000 		blez	a4,.L40
 470              	.LBE15:
  52:src/SemaphoreBase.cpp **** }
 471              		.loc 1 52 12
 472 0280 13050000 		li	a0,0
GAS LISTING /tmp/ccH1FaDF.s 			page 12


 473              	.LVL40:
  53:src/SemaphoreBase.cpp **** 
 474              		.loc 1 53 1
 475 0284 67800000 		ret
 476              	.LVL41:
 477              	.L40:
  47:src/SemaphoreBase.cpp ****     if(++val <= 0) {
 478              		.loc 1 47 29
 479 0288 130101FF 		addi	sp,sp,-16
 480              		.cfi_def_cfa_offset 16
 481 028c 23341100 		sd	ra,8(sp)
 482 0290 23308100 		sd	s0,0(sp)
 483              		.cfi_offset 1, -8
 484              		.cfi_offset 8, -16
 485 0294 13040101 		addi	s0,sp,16
 486              		.cfi_def_cfa 8, 0
 487              	.LBB17:
 488              	.LBB16:
  49:src/SemaphoreBase.cpp ****         return status;
 489              		.loc 1 49 9 is_stmt 1
  49:src/SemaphoreBase.cpp ****         return status;
 490              		.loc 1 49 29 is_stmt 0
 491 0298 97000000 		call	_ZN13SemaphoreBase7unblockEv
 491      E7800000 
 492              	.LVL42:
  50:src/SemaphoreBase.cpp ****     }
 493              		.loc 1 50 9 is_stmt 1
 494              	.LBE16:
 495              	.LBE17:
  53:src/SemaphoreBase.cpp **** 
 496              		.loc 1 53 1 is_stmt 0
 497 02a0 83308100 		ld	ra,8(sp)
 498              		.cfi_restore 1
 499 02a4 03340100 		ld	s0,0(sp)
 500              		.cfi_restore 8
 501              		.cfi_def_cfa 2, 16
 502 02a8 13010101 		addi	sp,sp,16
 503              		.cfi_def_cfa_offset 0
 504 02ac 67800000 		jr	ra
 505              		.cfi_endproc
 506              	.LFE27:
 508              	.Letext0:
 509              		.file 3 "src/../h/../lib/hw.h"
 510              		.file 4 "src/../h/TCB.hpp"
 511              		.file 5 "src/../h/SemaphoreBase.hpp"
 512              		.file 6 "src/../h/SchedulerNode.hpp"
 513              		.file 7 "src/../h/Scheduler.hpp"
 514              		.file 8 "src/../h/kernel_functions.hpp"
GAS LISTING /tmp/ccH1FaDF.s 			page 13

