GAS LISTING /tmp/ccjxkM2h.s 			page 1


   1              		.file	"syscall_cpp.cpp"
   2              		.option pic
   3              		.option norelax
   4              		.text
   5              	.Ltext0:
   6              		.section	.text._ZN6Thread3runEv,"axG",@progbits,_ZN6Thread3runEv,comdat
   7              		.align	2
   8              		.weak	_ZN6Thread3runEv
  10              	_ZN6Thread3runEv:
  11              	.LFB21:
  12              		.file 1 "src/../h/syscall_cpp.hpp"
   1:src/../h/syscall_cpp.hpp **** #ifndef _syscall_cpp
   2:src/../h/syscall_cpp.hpp **** #define _syscall_cpp
   3:src/../h/syscall_cpp.hpp **** 
   4:src/../h/syscall_cpp.hpp **** #include "syscall_c.h"
   5:src/../h/syscall_cpp.hpp **** 
   6:src/../h/syscall_cpp.hpp **** void* operator new (size_t);
   7:src/../h/syscall_cpp.hpp **** void operator delete (void*);
   8:src/../h/syscall_cpp.hpp **** 
   9:src/../h/syscall_cpp.hpp **** class Thread {
  10:src/../h/syscall_cpp.hpp **** public:
  11:src/../h/syscall_cpp.hpp ****     Thread (void (*body)(void*), void* arg);
  12:src/../h/syscall_cpp.hpp ****     virtual ~Thread ();
  13:src/../h/syscall_cpp.hpp ****     int start ();
  14:src/../h/syscall_cpp.hpp ****     static void dispatch ();
  15:src/../h/syscall_cpp.hpp ****     static int sleep (time_t);
  16:src/../h/syscall_cpp.hpp **** protected:
  17:src/../h/syscall_cpp.hpp ****     Thread ();
  18:src/../h/syscall_cpp.hpp ****     virtual void run () {}
  13              		.loc 1 18 18
  14              		.cfi_startproc
  15              	.LVL0:
  16 0000 130101FF 		addi	sp,sp,-16
  17              		.cfi_def_cfa_offset 16
  18 0004 23348100 		sd	s0,8(sp)
  19              		.cfi_offset 8, -8
  20 0008 13040101 		addi	s0,sp,16
  21              		.cfi_def_cfa 8, 0
  22              		.loc 1 18 26 is_stmt 0
  23 000c 03348100 		ld	s0,8(sp)
  24              		.cfi_restore 8
  25              		.cfi_def_cfa 2, 16
  26 0010 13010101 		addi	sp,sp,16
  27              		.cfi_def_cfa_offset 0
  28 0014 67800000 		jr	ra
  29              		.cfi_endproc
  30              	.LFE21:
  32              		.text
  33              		.align	2
  34              		.globl	_ZN6Thread10runWrapperEPv
  36              	_ZN6Thread10runWrapperEPv:
  37              	.LFB29:
  38              		.file 2 "src/syscall_cpp.cpp"
   1:src/syscall_cpp.cpp **** //
   2:src/syscall_cpp.cpp **** // Created by os on 5/16/22.
   3:src/syscall_cpp.cpp **** //
   4:src/syscall_cpp.cpp **** 
GAS LISTING /tmp/ccjxkM2h.s 			page 2


   5:src/syscall_cpp.cpp **** #include "../h/syscall_cpp.hpp"
   6:src/syscall_cpp.cpp **** 
   7:src/syscall_cpp.cpp **** 
   8:src/syscall_cpp.cpp **** void* operator new (size_t sz){
   9:src/syscall_cpp.cpp ****     return mem_alloc(sz);
  10:src/syscall_cpp.cpp **** }
  11:src/syscall_cpp.cpp **** void operator delete (void* p){
  12:src/syscall_cpp.cpp ****     mem_free(p);
  13:src/syscall_cpp.cpp **** }
  14:src/syscall_cpp.cpp **** 
  15:src/syscall_cpp.cpp **** Thread::Thread(void (*body)(void *), void *arg) {
  16:src/syscall_cpp.cpp ****     this->body = body;
  17:src/syscall_cpp.cpp ****     this->arg = arg;
  18:src/syscall_cpp.cpp **** }
  19:src/syscall_cpp.cpp **** 
  20:src/syscall_cpp.cpp **** int Thread::start(){
  21:src/syscall_cpp.cpp ****     if(myHandle != nullptr)return -2; // start method has been initiated in the past
  22:src/syscall_cpp.cpp ****     int status = thread_create(&myHandle, runWrapper, this);
  23:src/syscall_cpp.cpp ****     return status;
  24:src/syscall_cpp.cpp **** }
  25:src/syscall_cpp.cpp **** 
  26:src/syscall_cpp.cpp **** void Thread::dispatch(){
  27:src/syscall_cpp.cpp ****     thread_dispatch();
  28:src/syscall_cpp.cpp **** }
  29:src/syscall_cpp.cpp **** 
  30:src/syscall_cpp.cpp **** void Thread::runWrapper(void *arg) {
  39              		.loc 2 30 36 is_stmt 1
  40              		.cfi_startproc
  41              	.LVL1:
  31:src/syscall_cpp.cpp ****     Thread* thr = (Thread*)arg;
  42              		.loc 2 31 5
  32:src/syscall_cpp.cpp ****     if(!thr)return;
  43              		.loc 2 32 5
  44 0000 63020504 		beqz	a0,.L7
  30:src/syscall_cpp.cpp ****     Thread* thr = (Thread*)arg;
  45              		.loc 2 30 36 is_stmt 0
  46 0004 130101FF 		addi	sp,sp,-16
  47              		.cfi_def_cfa_offset 16
  48 0008 23341100 		sd	ra,8(sp)
  49 000c 23308100 		sd	s0,0(sp)
  50              		.cfi_offset 1, -8
  51              		.cfi_offset 8, -16
  52 0010 13040101 		addi	s0,sp,16
  53              		.cfi_def_cfa 8, 0
  33:src/syscall_cpp.cpp ****     if(thr->body){
  54              		.loc 2 33 5 is_stmt 1
  55              		.loc 2 33 13 is_stmt 0
  56 0014 83370501 		ld	a5,16(a0)
  57              		.loc 2 33 5
  58 0018 638E0700 		beqz	a5,.L5
  34:src/syscall_cpp.cpp ****         thr->body(thr->arg);
  59              		.loc 2 34 9 is_stmt 1
  60              		.loc 2 34 18 is_stmt 0
  61 001c 03358501 		ld	a0,24(a0)
  62              	.LVL2:
  63 0020 E7800700 		jalr	a5
  64              	.LVL3:
GAS LISTING /tmp/ccjxkM2h.s 			page 3


  65              	.L3:
  35:src/syscall_cpp.cpp ****     }else{
  36:src/syscall_cpp.cpp ****         thr->run();
  37:src/syscall_cpp.cpp ****     }
  38:src/syscall_cpp.cpp ****     //dispatch();
  39:src/syscall_cpp.cpp **** }
  66              		.loc 2 39 1
  67 0024 83308100 		ld	ra,8(sp)
  68              		.cfi_remember_state
  69              		.cfi_restore 1
  70 0028 03340100 		ld	s0,0(sp)
  71              		.cfi_restore 8
  72              		.cfi_def_cfa 2, 16
  73 002c 13010101 		addi	sp,sp,16
  74              		.cfi_def_cfa_offset 0
  75 0030 67800000 		jr	ra
  76              	.LVL4:
  77              	.L5:
  78              		.cfi_restore_state
  36:src/syscall_cpp.cpp ****     }
  79              		.loc 2 36 9 is_stmt 1
  36:src/syscall_cpp.cpp ****     }
  80              		.loc 2 36 18 is_stmt 0
  81 0034 83370500 		ld	a5,0(a0)
  82 0038 83B70701 		ld	a5,16(a5)
  36:src/syscall_cpp.cpp ****     }
  83              		.loc 2 36 17
  84 003c E7800700 		jalr	a5
  85              	.LVL5:
  86 0040 6FF05FFE 		j	.L3
  87              	.LVL6:
  88              	.L7:
  89              		.cfi_def_cfa_register 2
  90              		.cfi_restore 1
  91              		.cfi_restore 8
  92 0044 67800000 		ret
  93              		.cfi_endproc
  94              	.LFE29:
  96              		.align	2
  97              		.globl	_Znwm
  99              	_Znwm:
 100              	.LFB22:
   8:src/syscall_cpp.cpp ****     return mem_alloc(sz);
 101              		.loc 2 8 31 is_stmt 1
 102              		.cfi_startproc
 103              	.LVL7:
 104 0048 130101FF 		addi	sp,sp,-16
 105              		.cfi_def_cfa_offset 16
 106 004c 23341100 		sd	ra,8(sp)
 107 0050 23308100 		sd	s0,0(sp)
 108              		.cfi_offset 1, -8
 109              		.cfi_offset 8, -16
 110 0054 13040101 		addi	s0,sp,16
 111              		.cfi_def_cfa 8, 0
   9:src/syscall_cpp.cpp **** }
 112              		.loc 2 9 5
   9:src/syscall_cpp.cpp **** }
GAS LISTING /tmp/ccjxkM2h.s 			page 4


 113              		.loc 2 9 21 is_stmt 0
 114 0058 97000000 		call	mem_alloc@plt
 114      E7800000 
 115              	.LVL8:
  10:src/syscall_cpp.cpp **** void operator delete (void* p){
 116              		.loc 2 10 1
 117 0060 83308100 		ld	ra,8(sp)
 118              		.cfi_restore 1
 119 0064 03340100 		ld	s0,0(sp)
 120              		.cfi_restore 8
 121              		.cfi_def_cfa 2, 16
 122 0068 13010101 		addi	sp,sp,16
 123              		.cfi_def_cfa_offset 0
 124 006c 67800000 		jr	ra
 125              		.cfi_endproc
 126              	.LFE22:
 128              		.align	2
 129              		.globl	_ZdlPv
 131              	_ZdlPv:
 132              	.LFB23:
  11:src/syscall_cpp.cpp ****     mem_free(p);
 133              		.loc 2 11 31 is_stmt 1
 134              		.cfi_startproc
 135              	.LVL9:
 136 0070 130101FF 		addi	sp,sp,-16
 137              		.cfi_def_cfa_offset 16
 138 0074 23341100 		sd	ra,8(sp)
 139 0078 23308100 		sd	s0,0(sp)
 140              		.cfi_offset 1, -8
 141              		.cfi_offset 8, -16
 142 007c 13040101 		addi	s0,sp,16
 143              		.cfi_def_cfa 8, 0
  12:src/syscall_cpp.cpp **** }
 144              		.loc 2 12 5
  12:src/syscall_cpp.cpp **** }
 145              		.loc 2 12 13 is_stmt 0
 146 0080 97000000 		call	mem_free@plt
 146      E7800000 
 147              	.LVL10:
  13:src/syscall_cpp.cpp **** 
 148              		.loc 2 13 1
 149 0088 83308100 		ld	ra,8(sp)
 150              		.cfi_restore 1
 151 008c 03340100 		ld	s0,0(sp)
 152              		.cfi_restore 8
 153              		.cfi_def_cfa 2, 16
 154 0090 13010101 		addi	sp,sp,16
 155              		.cfi_def_cfa_offset 0
 156 0094 67800000 		jr	ra
 157              		.cfi_endproc
 158              	.LFE23:
 160              		.align	2
 161              		.globl	_ZN6ThreadD2Ev
 163              	_ZN6ThreadD2Ev:
 164              	.LFB34:
  40:src/syscall_cpp.cpp **** 
  41:src/syscall_cpp.cpp **** Thread::Thread(){
GAS LISTING /tmp/ccjxkM2h.s 			page 5


  42:src/syscall_cpp.cpp **** 
  43:src/syscall_cpp.cpp **** }
  44:src/syscall_cpp.cpp **** 
  45:src/syscall_cpp.cpp **** Thread::~Thread() {
 165              		.loc 2 45 1 is_stmt 1
 166              		.cfi_startproc
 167              		.cfi_personality 0x9b,DW.ref.__gxx_personality_v0
 168              		.cfi_lsda 0x1b,.LLSDA34
 169              	.LVL11:
 170 0098 130101FE 		addi	sp,sp,-32
 171              		.cfi_def_cfa_offset 32
 172 009c 233C1100 		sd	ra,24(sp)
 173 00a0 23388100 		sd	s0,16(sp)
 174 00a4 23349100 		sd	s1,8(sp)
 175              		.cfi_offset 1, -8
 176              		.cfi_offset 8, -16
 177              		.cfi_offset 9, -24
 178 00a8 13040102 		addi	s0,sp,32
 179              		.cfi_def_cfa 8, 0
 180              	.LBB2:
 181              		.loc 2 45 17 is_stmt 0
 182 00ac 97070000 		lla	a5,_ZTV6Thread+16
 182      93870700 
 183 00b4 2330F500 		sd	a5,0(a0)
  46:src/syscall_cpp.cpp ****     if(myHandle)delete myHandle;
 184              		.loc 2 46 5 is_stmt 1
 185              		.loc 2 46 8 is_stmt 0
 186 00b8 83348500 		ld	s1,8(a0)
 187              		.loc 2 46 5
 188 00bc 638E0400 		beqz	s1,.L14
 189              		.loc 2 46 17 is_stmt 1 discriminator 2
 190              		.loc 2 46 24 is_stmt 0 discriminator 2
 191 00c0 13850400 		mv	a0,s1
 192              	.LVL12:
 193 00c4 97000000 		call	_ZN3TCBD1Ev@plt
 193      E7800000 
 194              	.LVL13:
 195 00cc 13850400 		mv	a0,s1
 196 00d0 97000000 		call	_ZdlPv
 196      E7800000 
 197              	.LVL14:
  47:src/syscall_cpp.cpp ****     myHandle = nullptr;
 198              		.loc 2 47 5 is_stmt 1 discriminator 2
  48:src/syscall_cpp.cpp ****     body = nullptr;
 199              		.loc 2 48 5 discriminator 2
  49:src/syscall_cpp.cpp ****     arg = nullptr;
 200              		.loc 2 49 5 discriminator 2
 201              	.L14:
 202              	.LBE2:
  50:src/syscall_cpp.cpp **** }
 203              		.loc 2 50 1 is_stmt 0
 204 00d8 83308101 		ld	ra,24(sp)
 205              		.cfi_restore 1
 206 00dc 03340101 		ld	s0,16(sp)
 207              		.cfi_restore 8
 208              		.cfi_def_cfa 2, 32
 209 00e0 83348100 		ld	s1,8(sp)
GAS LISTING /tmp/ccjxkM2h.s 			page 6


 210              		.cfi_restore 9
 211 00e4 13010102 		addi	sp,sp,32
 212              		.cfi_def_cfa_offset 0
 213 00e8 67800000 		jr	ra
 214              		.cfi_endproc
 215              	.LFE34:
 216              		.globl	__gxx_personality_v0
 217              		.section	.gcc_except_table,"a",@progbits
 218              	.LLSDA34:
 219 0000 FF       		.byte	0xff
 220 0001 FF       		.byte	0xff
 221 0002 03       		.byte	0x3
 222 0003 00       		.byte	0
 223              		.text
 225              		.globl	_ZN6ThreadD1Ev
 226              		.set	_ZN6ThreadD1Ev,_ZN6ThreadD2Ev
 227              		.align	2
 228              		.globl	_ZN6ThreadD0Ev
 230              	_ZN6ThreadD0Ev:
 231              	.LFB36:
  45:src/syscall_cpp.cpp ****     if(myHandle)delete myHandle;
 232              		.loc 2 45 1 is_stmt 1
 233              		.cfi_startproc
 234              	.LVL15:
 235 00ec 130101FE 		addi	sp,sp,-32
 236              		.cfi_def_cfa_offset 32
 237 00f0 233C1100 		sd	ra,24(sp)
 238 00f4 23388100 		sd	s0,16(sp)
 239 00f8 23349100 		sd	s1,8(sp)
 240              		.cfi_offset 1, -8
 241              		.cfi_offset 8, -16
 242              		.cfi_offset 9, -24
 243 00fc 13040102 		addi	s0,sp,32
 244              		.cfi_def_cfa 8, 0
 245 0100 93040500 		mv	s1,a0
 246              		.loc 2 50 1 is_stmt 0
 247 0104 97000000 		call	_ZN6ThreadD1Ev
 247      E7800000 
 248              	.LVL16:
 249 010c 13850400 		mv	a0,s1
 250 0110 97000000 		call	_ZdlPv
 250      E7800000 
 251              	.LVL17:
 252 0118 83308101 		ld	ra,24(sp)
 253              		.cfi_restore 1
 254 011c 03340101 		ld	s0,16(sp)
 255              		.cfi_restore 8
 256              		.cfi_def_cfa 2, 32
 257 0120 83348100 		ld	s1,8(sp)
 258              		.cfi_restore 9
 259              	.LVL18:
 260 0124 13010102 		addi	sp,sp,32
 261              		.cfi_def_cfa_offset 0
 262 0128 67800000 		jr	ra
 263              		.cfi_endproc
 264              	.LFE36:
 266              		.align	2
GAS LISTING /tmp/ccjxkM2h.s 			page 7


 267              		.globl	_ZN6ThreadC2EPFvPvES0_
 269              	_ZN6ThreadC2EPFvPvES0_:
 270              	.LFB25:
  15:src/syscall_cpp.cpp ****     this->body = body;
 271              		.loc 2 15 1 is_stmt 1
 272              		.cfi_startproc
 273              	.LVL19:
 274 012c 130101FF 		addi	sp,sp,-16
 275              		.cfi_def_cfa_offset 16
 276 0130 23348100 		sd	s0,8(sp)
 277              		.cfi_offset 8, -8
 278 0134 13040101 		addi	s0,sp,16
 279              		.cfi_def_cfa 8, 0
 280              	.LBB3:
  15:src/syscall_cpp.cpp ****     this->body = body;
 281              		.loc 2 15 47 is_stmt 0
 282 0138 97070000 		lla	a5,_ZTV6Thread+16
 282      93870700 
 283 0140 2330F500 		sd	a5,0(a0)
 284 0144 23340500 		sd	zero,8(a0)
  16:src/syscall_cpp.cpp ****     this->arg = arg;
 285              		.loc 2 16 5 is_stmt 1
  16:src/syscall_cpp.cpp ****     this->arg = arg;
 286              		.loc 2 16 16 is_stmt 0
 287 0148 2338B500 		sd	a1,16(a0)
  17:src/syscall_cpp.cpp **** }
 288              		.loc 2 17 5 is_stmt 1
  17:src/syscall_cpp.cpp **** }
 289              		.loc 2 17 15 is_stmt 0
 290 014c 233CC500 		sd	a2,24(a0)
 291              	.LBE3:
  18:src/syscall_cpp.cpp **** 
 292              		.loc 2 18 1
 293 0150 03348100 		ld	s0,8(sp)
 294              		.cfi_restore 8
 295              		.cfi_def_cfa 2, 16
 296 0154 13010101 		addi	sp,sp,16
 297              		.cfi_def_cfa_offset 0
 298 0158 67800000 		jr	ra
 299              		.cfi_endproc
 300              	.LFE25:
 302              		.globl	_ZN6ThreadC1EPFvPvES0_
 303              		.set	_ZN6ThreadC1EPFvPvES0_,_ZN6ThreadC2EPFvPvES0_
 304              		.align	2
 305              		.globl	_ZN6Thread5startEv
 307              	_ZN6Thread5startEv:
 308              	.LFB27:
  20:src/syscall_cpp.cpp ****     if(myHandle != nullptr)return -2; // start method has been initiated in the past
 309              		.loc 2 20 20 is_stmt 1
 310              		.cfi_startproc
 311              	.LVL20:
  21:src/syscall_cpp.cpp ****     int status = thread_create(&myHandle, runWrapper, this);
 312              		.loc 2 21 5
  21:src/syscall_cpp.cpp ****     int status = thread_create(&myHandle, runWrapper, this);
 313              		.loc 2 21 8 is_stmt 0
 314 015c 83378500 		ld	a5,8(a0)
  21:src/syscall_cpp.cpp ****     int status = thread_create(&myHandle, runWrapper, this);
GAS LISTING /tmp/ccjxkM2h.s 			page 8


 315              		.loc 2 21 5
 316 0160 639E0702 		bnez	a5,.L23
  20:src/syscall_cpp.cpp ****     if(myHandle != nullptr)return -2; // start method has been initiated in the past
 317              		.loc 2 20 20
 318 0164 130101FF 		addi	sp,sp,-16
 319              		.cfi_def_cfa_offset 16
 320 0168 23341100 		sd	ra,8(sp)
 321 016c 23308100 		sd	s0,0(sp)
 322              		.cfi_offset 1, -8
 323              		.cfi_offset 8, -16
 324 0170 13040101 		addi	s0,sp,16
 325              		.cfi_def_cfa 8, 0
  22:src/syscall_cpp.cpp ****     return status;
 326              		.loc 2 22 5 is_stmt 1
  22:src/syscall_cpp.cpp ****     return status;
 327              		.loc 2 22 31 is_stmt 0
 328 0174 13060500 		mv	a2,a0
 329 0178 97050000 		lla	a1,_ZN6Thread10runWrapperEPv
 329      93850500 
 330 0180 13058500 		addi	a0,a0,8
 331              	.LVL21:
 332 0184 97000000 		call	thread_create@plt
 332      E7800000 
 333              	.LVL22:
  23:src/syscall_cpp.cpp **** }
 334              		.loc 2 23 5 is_stmt 1
  24:src/syscall_cpp.cpp **** 
 335              		.loc 2 24 1 is_stmt 0
 336 018c 83308100 		ld	ra,8(sp)
 337              		.cfi_restore 1
 338 0190 03340100 		ld	s0,0(sp)
 339              		.cfi_restore 8
 340              		.cfi_def_cfa 2, 16
 341 0194 13010101 		addi	sp,sp,16
 342              		.cfi_def_cfa_offset 0
 343 0198 67800000 		jr	ra
 344              	.LVL23:
 345              	.L23:
  21:src/syscall_cpp.cpp ****     int status = thread_create(&myHandle, runWrapper, this);
 346              		.loc 2 21 36
 347 019c 1305E0FF 		li	a0,-2
 348              	.LVL24:
  24:src/syscall_cpp.cpp **** 
 349              		.loc 2 24 1
 350 01a0 67800000 		ret
 351              		.cfi_endproc
 352              	.LFE27:
 354              		.align	2
 355              		.globl	_ZN6Thread8dispatchEv
 357              	_ZN6Thread8dispatchEv:
 358              	.LFB28:
  26:src/syscall_cpp.cpp ****     thread_dispatch();
 359              		.loc 2 26 24 is_stmt 1
 360              		.cfi_startproc
 361 01a4 130101FF 		addi	sp,sp,-16
 362              		.cfi_def_cfa_offset 16
 363 01a8 23341100 		sd	ra,8(sp)
GAS LISTING /tmp/ccjxkM2h.s 			page 9


 364 01ac 23308100 		sd	s0,0(sp)
 365              		.cfi_offset 1, -8
 366              		.cfi_offset 8, -16
 367 01b0 13040101 		addi	s0,sp,16
 368              		.cfi_def_cfa 8, 0
  27:src/syscall_cpp.cpp **** }
 369              		.loc 2 27 5
  27:src/syscall_cpp.cpp **** }
 370              		.loc 2 27 20 is_stmt 0
 371 01b4 97000000 		call	thread_dispatch@plt
 371      E7800000 
 372              	.LVL25:
  28:src/syscall_cpp.cpp **** 
 373              		.loc 2 28 1
 374 01bc 83308100 		ld	ra,8(sp)
 375              		.cfi_restore 1
 376 01c0 03340100 		ld	s0,0(sp)
 377              		.cfi_restore 8
 378              		.cfi_def_cfa 2, 16
 379 01c4 13010101 		addi	sp,sp,16
 380              		.cfi_def_cfa_offset 0
 381 01c8 67800000 		jr	ra
 382              		.cfi_endproc
 383              	.LFE28:
 385              		.align	2
 386              		.globl	_ZN6ThreadC2Ev
 388              	_ZN6ThreadC2Ev:
 389              	.LFB31:
  41:src/syscall_cpp.cpp **** 
 390              		.loc 2 41 1 is_stmt 1
 391              		.cfi_startproc
 392              	.LVL26:
 393 01cc 130101FF 		addi	sp,sp,-16
 394              		.cfi_def_cfa_offset 16
 395 01d0 23348100 		sd	s0,8(sp)
 396              		.cfi_offset 8, -8
 397 01d4 13040101 		addi	s0,sp,16
 398              		.cfi_def_cfa 8, 0
 399              	.LBB4:
  41:src/syscall_cpp.cpp **** 
 400              		.loc 2 41 16 is_stmt 0
 401 01d8 97070000 		lla	a5,_ZTV6Thread+16
 401      93870700 
 402 01e0 2330F500 		sd	a5,0(a0)
 403 01e4 23340500 		sd	zero,8(a0)
 404 01e8 23380500 		sd	zero,16(a0)
 405 01ec 233C0500 		sd	zero,24(a0)
 406              	.LBE4:
  43:src/syscall_cpp.cpp **** 
 407              		.loc 2 43 1
 408 01f0 03348100 		ld	s0,8(sp)
 409              		.cfi_restore 8
 410              		.cfi_def_cfa 2, 16
 411 01f4 13010101 		addi	sp,sp,16
 412              		.cfi_def_cfa_offset 0
 413 01f8 67800000 		jr	ra
 414              		.cfi_endproc
GAS LISTING /tmp/ccjxkM2h.s 			page 10


 415              	.LFE31:
 417              		.globl	_ZN6ThreadC1Ev
 418              		.set	_ZN6ThreadC1Ev,_ZN6ThreadC2Ev
 419              		.weak	_ZTV6Thread
 420              		.section	.data.rel.ro.local._ZTV6Thread,"awG",@progbits,_ZTV6Thread,comdat
 421              		.align	3
 424              	_ZTV6Thread:
 425 0000 00000000 		.dword	0
 425      00000000 
 426 0008 00000000 		.dword	0
 426      00000000 
 427 0010 00000000 		.dword	_ZN6ThreadD1Ev
 427      00000000 
 428 0018 00000000 		.dword	_ZN6ThreadD0Ev
 428      00000000 
 429 0020 00000000 		.dword	_ZN6Thread3runEv
 429      00000000 
 430              		.text
 431              	.Letext0:
 432              		.file 3 "src/../h/../lib/hw.h"
 433              		.file 4 "src/../h/kernel_functions.hpp"
 434              		.file 5 "src/../h/TCB.hpp"
 435              		.file 6 "src/../h/SchedulerNode.hpp"
 436              		.file 7 "src/../h/syscall_c.h"
 2856              		.align	3
 2859              	DW.ref.__gxx_personality_v0:
 2860 0000 00000000 		.dword	__gxx_personality_v0
 2860      00000000 
 2861              		.ident	"GCC: (Ubuntu 9.4.0-1ubuntu1~20.04) 9.4.0"
 2862              		.section	.note.GNU-stack,"",@progbits
GAS LISTING /tmp/ccjxkM2h.s 			page 11

