GAS LISTING /tmp/ccRzv7Zr.s 			page 1


   1              		.file	"syscall_c.cpp"
   2              		.option pic
   3              		.option norelax
   4              		.text
   5              	.Ltext0:
   6              		.align	2
   7              		.globl	callSupervisedTrap
   9              	callSupervisedTrap:
  10              	.LFB21:
  11              		.file 1 "src/syscall_c.cpp"
   1:src/syscall_c.cpp **** #include "../h/syscall_c.h"
   2:src/syscall_c.cpp **** #include "../lib/console.h"
   3:src/syscall_c.cpp **** 
   4:src/syscall_c.cpp **** extern "C" void callSupervisedTrap(int id, void* arg1 = nullptr, void* arg2 = nullptr, void* arg3 =
  12              		.loc 1 4 131
  13              		.cfi_startproc
  14              	.LVL0:
  15 0000 130101FF 		addi	sp,sp,-16
  16              		.cfi_def_cfa_offset 16
  17 0004 23348100 		sd	s0,8(sp)
  18              		.cfi_offset 8, -8
  19 0008 13040101 		addi	s0,sp,16
  20              		.cfi_def_cfa 8, 0
   5:src/syscall_c.cpp ****     __asm__ volatile("ecall");
  21              		.loc 1 5 5
  22              		.loc 1 5 30 is_stmt 0
  23              	#APP
  24              	# 5 "src/syscall_c.cpp" 1
   6              	}
  25              		ecall
  26              	# 0 "" 2
  27              		.loc 1 6 1
  28              	#NO_APP
  29 0010 03348100 		ld	s0,8(sp)
  30              		.cfi_restore 8
  31              		.cfi_def_cfa 2, 16
  32 0014 13010101 		addi	sp,sp,16
  33              		.cfi_def_cfa_offset 0
  34 0018 67800000 		jr	ra
  35              		.cfi_endproc
  36              	.LFE21:
  38              		.align	2
  39              		.globl	mem_alloc
  41              	mem_alloc:
  42              	.LFB22:
   7:src/syscall_c.cpp **** 
   8:src/syscall_c.cpp **** extern "C" void* mem_alloc (size_t size){
  43              		.loc 1 8 41 is_stmt 1
  44              		.cfi_startproc
  45              	.LVL1:
  46 001c 130101FF 		addi	sp,sp,-16
  47              		.cfi_def_cfa_offset 16
  48 0020 23341100 		sd	ra,8(sp)
  49 0024 23308100 		sd	s0,0(sp)
  50              		.cfi_offset 1, -8
  51              		.cfi_offset 8, -16
  52 0028 13040101 		addi	s0,sp,16
GAS LISTING /tmp/ccRzv7Zr.s 			page 2


  53              		.cfi_def_cfa 8, 0
   9:src/syscall_c.cpp ****     size_t numberOfBlocks = (size + MEM_BLOCK_SIZE - 1)/MEM_BLOCK_SIZE;
  54              		.loc 1 9 5
  55              		.loc 1 9 52 is_stmt 0
  56 002c 9305F503 		addi	a1,a0,63
  57              	.LVL2:
  10:src/syscall_c.cpp ****     callSupervisedTrap(0x01, (void*)numberOfBlocks);
  58              		.loc 1 10 5 is_stmt 1
  59              		.loc 1 10 23 is_stmt 0
  60 0030 13070000 		li	a4,0
  61 0034 93060000 		li	a3,0
  62 0038 13060000 		li	a2,0
  63 003c 93D56500 		srli	a1,a1,6
  64              	.LVL3:
  65 0040 13051000 		li	a0,1
  66              	.LVL4:
  67 0044 97000000 		call	callSupervisedTrap
  67      E7800000 
  68              	.LVL5:
  11:src/syscall_c.cpp **** 
  12:src/syscall_c.cpp ****     __asm__ volatile("mv s5,a0");
  69              		.loc 1 12 5 is_stmt 1
  70              		.loc 1 12 33 is_stmt 0
  71              	#APP
  72              	# 12 "src/syscall_c.cpp" 1
  13              	    void* result = 0;
  73              		mv s5,a0
  74              	# 0 "" 2
  75              		.loc 1 13 5 is_stmt 1
  76              	.LVL6:
  14:src/syscall_c.cpp ****     __asm__ volatile("mv %0,s5":"=r"(result));
  77              		.loc 1 14 5
  78              		.loc 1 14 46 is_stmt 0
  79              	# 14 "src/syscall_c.cpp" 1
  15              	    return result;
  80              		mv a0,s5
  81              	# 0 "" 2
  82              	.LVL7:
  83              		.loc 1 15 5 is_stmt 1
  16:src/syscall_c.cpp **** }
  84              		.loc 1 16 1 is_stmt 0
  85              	#NO_APP
  86 0054 83308100 		ld	ra,8(sp)
  87              		.cfi_restore 1
  88 0058 03340100 		ld	s0,0(sp)
  89              		.cfi_restore 8
  90              		.cfi_def_cfa 2, 16
  91 005c 13010101 		addi	sp,sp,16
  92              		.cfi_def_cfa_offset 0
  93 0060 67800000 		jr	ra
  94              		.cfi_endproc
  95              	.LFE22:
  97              		.align	2
  98              		.globl	mem_free
 100              	mem_free:
 101              	.LFB23:
  17:src/syscall_c.cpp **** 
GAS LISTING /tmp/ccRzv7Zr.s 			page 3


  18:src/syscall_c.cpp **** extern "C" int mem_free (void* addr){
 102              		.loc 1 18 37 is_stmt 1
 103              		.cfi_startproc
 104              	.LVL8:
 105 0064 130101FF 		addi	sp,sp,-16
 106              		.cfi_def_cfa_offset 16
 107 0068 23341100 		sd	ra,8(sp)
 108 006c 23308100 		sd	s0,0(sp)
 109              		.cfi_offset 1, -8
 110              		.cfi_offset 8, -16
 111 0070 13040101 		addi	s0,sp,16
 112              		.cfi_def_cfa 8, 0
 113 0074 93050500 		mv	a1,a0
  19:src/syscall_c.cpp ****     callSupervisedTrap(0x02, addr);
 114              		.loc 1 19 5
 115              		.loc 1 19 23 is_stmt 0
 116 0078 13070000 		li	a4,0
 117 007c 93060000 		li	a3,0
 118 0080 13060000 		li	a2,0
 119 0084 13052000 		li	a0,2
 120              	.LVL9:
 121 0088 97000000 		call	callSupervisedTrap
 121      E7800000 
 122              	.LVL10:
  20:src/syscall_c.cpp **** 
  21:src/syscall_c.cpp ****     __asm__ volatile("mv s5,a0");
 123              		.loc 1 21 5 is_stmt 1
 124              		.loc 1 21 33 is_stmt 0
 125              	#APP
 126              	# 21 "src/syscall_c.cpp" 1
  22              	    int result;
 127              		mv s5,a0
 128              	# 0 "" 2
 129              		.loc 1 22 5 is_stmt 1
  23:src/syscall_c.cpp ****     __asm__ volatile("mv %0,s5":"=r"(result));
 130              		.loc 1 23 5
 131              		.loc 1 23 46 is_stmt 0
 132              	# 23 "src/syscall_c.cpp" 1
  24              	    return result;
 133              		mv a0,s5
 134              	# 0 "" 2
 135              	.LVL11:
 136              		.loc 1 24 5 is_stmt 1
  25:src/syscall_c.cpp **** }
 137              		.loc 1 25 1 is_stmt 0
 138              	#NO_APP
 139 0098 1B050500 		sext.w	a0,a0
 140 009c 83308100 		ld	ra,8(sp)
 141              		.cfi_restore 1
 142 00a0 03340100 		ld	s0,0(sp)
 143              		.cfi_restore 8
 144              		.cfi_def_cfa 2, 16
 145 00a4 13010101 		addi	sp,sp,16
 146              		.cfi_def_cfa_offset 0
 147 00a8 67800000 		jr	ra
 148              		.cfi_endproc
 149              	.LFE23:
GAS LISTING /tmp/ccRzv7Zr.s 			page 4


 151              		.align	2
 152              		.globl	thread_create
 154              	thread_create:
 155              	.LFB24:
  26:src/syscall_c.cpp **** 
  27:src/syscall_c.cpp **** extern "C" int thread_create(thread_t* handle, void(*start_routine)(void*), void* arg){
 156              		.loc 1 27 87 is_stmt 1
 157              		.cfi_startproc
 158              	.LVL12:
 159 00ac 130101FD 		addi	sp,sp,-48
 160              		.cfi_def_cfa_offset 48
 161 00b0 23341102 		sd	ra,40(sp)
 162 00b4 23308102 		sd	s0,32(sp)
 163 00b8 233C9100 		sd	s1,24(sp)
 164 00bc 23382101 		sd	s2,16(sp)
 165 00c0 23343101 		sd	s3,8(sp)
 166              		.cfi_offset 1, -8
 167              		.cfi_offset 8, -16
 168              		.cfi_offset 9, -24
 169              		.cfi_offset 18, -32
 170              		.cfi_offset 19, -40
 171 00c4 13040103 		addi	s0,sp,48
 172              		.cfi_def_cfa 8, 0
 173 00c8 93040500 		mv	s1,a0
 174 00cc 13890500 		mv	s2,a1
 175 00d0 93090600 		mv	s3,a2
  28:src/syscall_c.cpp ****     uint64* stack = (uint64*) mem_alloc(DEFAULT_STACK_SIZE);
 176              		.loc 1 28 5
 177              		.loc 1 28 40 is_stmt 0
 178 00d4 37150000 		li	a0,4096
 179              	.LVL13:
 180 00d8 97000000 		call	mem_alloc
 180      E7800000 
 181              	.LVL14:
  29:src/syscall_c.cpp ****     if(!stack)return -1;
 182              		.loc 1 29 5 is_stmt 1
 183 00e0 63060504 		beqz	a0,.L9
  30:src/syscall_c.cpp **** 
  31:src/syscall_c.cpp ****     callSupervisedTrap(0x11, handle, (void*)start_routine, arg, &stack[DEFAULT_STACK_SIZE]);
 184              		.loc 1 31 5
 185              		.loc 1 31 23 is_stmt 0
 186 00e4 37870000 		li	a4,32768
 187 00e8 3307E500 		add	a4,a0,a4
 188 00ec 93860900 		mv	a3,s3
 189 00f0 13060900 		mv	a2,s2
 190 00f4 93850400 		mv	a1,s1
 191 00f8 13051001 		li	a0,17
 192              	.LVL15:
 193 00fc 97000000 		call	callSupervisedTrap
 193      E7800000 
 194              	.LVL16:
  32:src/syscall_c.cpp ****     if(!(*handle))return -1;
 195              		.loc 1 32 5 is_stmt 1
 196              		.loc 1 32 10 is_stmt 0
 197 0104 83B70400 		ld	a5,0(s1)
 198              		.loc 1 32 5
 199 0108 63860702 		beqz	a5,.L10
GAS LISTING /tmp/ccRzv7Zr.s 			page 5


  33:src/syscall_c.cpp ****     return 0;
 200              		.loc 1 33 12
 201 010c 13050000 		li	a0,0
 202              	.L8:
  34:src/syscall_c.cpp **** }
 203              		.loc 1 34 1
 204 0110 83308102 		ld	ra,40(sp)
 205              		.cfi_remember_state
 206              		.cfi_restore 1
 207 0114 03340102 		ld	s0,32(sp)
 208              		.cfi_restore 8
 209              		.cfi_def_cfa 2, 48
 210 0118 83348101 		ld	s1,24(sp)
 211              		.cfi_restore 9
 212              	.LVL17:
 213 011c 03390101 		ld	s2,16(sp)
 214              		.cfi_restore 18
 215              	.LVL18:
 216 0120 83398100 		ld	s3,8(sp)
 217              		.cfi_restore 19
 218              	.LVL19:
 219 0124 13010103 		addi	sp,sp,48
 220              		.cfi_def_cfa_offset 0
 221 0128 67800000 		jr	ra
 222              	.LVL20:
 223              	.L9:
 224              		.cfi_restore_state
  29:src/syscall_c.cpp **** 
 225              		.loc 1 29 23
 226 012c 1305F0FF 		li	a0,-1
 227              	.LVL21:
 228 0130 6FF01FFE 		j	.L8
 229              	.L10:
  32:src/syscall_c.cpp ****     return 0;
 230              		.loc 1 32 27
 231 0134 1305F0FF 		li	a0,-1
 232 0138 6FF09FFD 		j	.L8
 233              		.cfi_endproc
 234              	.LFE24:
 236              		.align	2
 237              		.globl	thread_exit
 239              	thread_exit:
 240              	.LFB25:
  35:src/syscall_c.cpp **** 
  36:src/syscall_c.cpp **** extern "C" int thread_exit(){
 241              		.loc 1 36 29 is_stmt 1
 242              		.cfi_startproc
 243 013c 130101FF 		addi	sp,sp,-16
 244              		.cfi_def_cfa_offset 16
 245 0140 23341100 		sd	ra,8(sp)
 246 0144 23308100 		sd	s0,0(sp)
 247              		.cfi_offset 1, -8
 248              		.cfi_offset 8, -16
 249 0148 13040101 		addi	s0,sp,16
 250              		.cfi_def_cfa 8, 0
  37:src/syscall_c.cpp ****     callSupervisedTrap(0x12);
 251              		.loc 1 37 5
GAS LISTING /tmp/ccRzv7Zr.s 			page 6


 252              		.loc 1 37 23 is_stmt 0
 253 014c 13070000 		li	a4,0
 254 0150 93060000 		li	a3,0
 255 0154 13060000 		li	a2,0
 256 0158 93050000 		li	a1,0
 257 015c 13052001 		li	a0,18
 258 0160 97000000 		call	callSupervisedTrap
 258      E7800000 
 259              	.LVL22:
  38:src/syscall_c.cpp **** 
  39:src/syscall_c.cpp ****     __asm__ volatile("mv s5,a0");
 260              		.loc 1 39 5 is_stmt 1
 261              		.loc 1 39 33 is_stmt 0
 262              	#APP
 263              	# 39 "src/syscall_c.cpp" 1
  40              	    int result;
 264              		mv s5,a0
 265              	# 0 "" 2
 266              		.loc 1 40 5 is_stmt 1
  41:src/syscall_c.cpp ****     __asm__ volatile("mv %0,s5":"=r"(result));
 267              		.loc 1 41 5
 268              		.loc 1 41 46 is_stmt 0
 269              	# 41 "src/syscall_c.cpp" 1
  42              	    return result;
 270              		mv a0,s5
 271              	# 0 "" 2
 272              	.LVL23:
 273              		.loc 1 42 5 is_stmt 1
  43:src/syscall_c.cpp **** }
 274              		.loc 1 43 1 is_stmt 0
 275              	#NO_APP
 276 0170 1B050500 		sext.w	a0,a0
 277 0174 83308100 		ld	ra,8(sp)
 278              		.cfi_restore 1
 279 0178 03340100 		ld	s0,0(sp)
 280              		.cfi_restore 8
 281              		.cfi_def_cfa 2, 16
 282 017c 13010101 		addi	sp,sp,16
 283              		.cfi_def_cfa_offset 0
 284 0180 67800000 		jr	ra
 285              		.cfi_endproc
 286              	.LFE25:
 288              		.align	2
 289              		.globl	thread_dispatch
 291              	thread_dispatch:
 292              	.LFB26:
  44:src/syscall_c.cpp **** 
  45:src/syscall_c.cpp **** extern "C" void thread_dispatch(){
 293              		.loc 1 45 34 is_stmt 1
 294              		.cfi_startproc
 295 0184 130101FF 		addi	sp,sp,-16
 296              		.cfi_def_cfa_offset 16
 297 0188 23341100 		sd	ra,8(sp)
 298 018c 23308100 		sd	s0,0(sp)
 299              		.cfi_offset 1, -8
 300              		.cfi_offset 8, -16
 301 0190 13040101 		addi	s0,sp,16
GAS LISTING /tmp/ccRzv7Zr.s 			page 7


 302              		.cfi_def_cfa 8, 0
  46:src/syscall_c.cpp ****     callSupervisedTrap(0x13);
 303              		.loc 1 46 5
 304              		.loc 1 46 23 is_stmt 0
 305 0194 13070000 		li	a4,0
 306 0198 93060000 		li	a3,0
 307 019c 13060000 		li	a2,0
 308 01a0 93050000 		li	a1,0
 309 01a4 13053001 		li	a0,19
 310 01a8 97000000 		call	callSupervisedTrap
 310      E7800000 
 311              	.LVL24:
  47:src/syscall_c.cpp **** }
 312              		.loc 1 47 1
 313 01b0 83308100 		ld	ra,8(sp)
 314              		.cfi_restore 1
 315 01b4 03340100 		ld	s0,0(sp)
 316              		.cfi_restore 8
 317              		.cfi_def_cfa 2, 16
 318 01b8 13010101 		addi	sp,sp,16
 319              		.cfi_def_cfa_offset 0
 320 01bc 67800000 		jr	ra
 321              		.cfi_endproc
 322              	.LFE26:
 324              		.align	2
 325              		.globl	sem_open
 327              	sem_open:
 328              	.LFB27:
  48:src/syscall_c.cpp **** 
  49:src/syscall_c.cpp **** extern "C" int sem_open (sem_t* handle, unsigned init){
 329              		.loc 1 49 55 is_stmt 1
 330              		.cfi_startproc
 331              	.LVL25:
 332 01c0 130101FE 		addi	sp,sp,-32
 333              		.cfi_def_cfa_offset 32
 334 01c4 233C1100 		sd	ra,24(sp)
 335 01c8 23388100 		sd	s0,16(sp)
 336 01cc 23349100 		sd	s1,8(sp)
 337              		.cfi_offset 1, -8
 338              		.cfi_offset 8, -16
 339              		.cfi_offset 9, -24
 340 01d0 13040102 		addi	s0,sp,32
 341              		.cfi_def_cfa 8, 0
 342 01d4 93040500 		mv	s1,a0
  50:src/syscall_c.cpp ****     callSupervisedTrap(0x21, handle, (void*)(uint64)init);
 343              		.loc 1 50 5
 344              		.loc 1 50 23 is_stmt 0
 345 01d8 13070000 		li	a4,0
 346 01dc 93060000 		li	a3,0
 347 01e0 13960502 		slli	a2,a1,32
 348 01e4 13560602 		srli	a2,a2,32
 349 01e8 93050500 		mv	a1,a0
 350              	.LVL26:
 351 01ec 13051002 		li	a0,33
 352              	.LVL27:
 353 01f0 97000000 		call	callSupervisedTrap
 353      E7800000 
GAS LISTING /tmp/ccRzv7Zr.s 			page 8


 354              	.LVL28:
  51:src/syscall_c.cpp ****     if(!(*handle))return -1;
 355              		.loc 1 51 5 is_stmt 1
 356              		.loc 1 51 10 is_stmt 0
 357 01f8 83B70400 		ld	a5,0(s1)
 358              		.loc 1 51 5
 359 01fc 638E0700 		beqz	a5,.L18
  52:src/syscall_c.cpp ****     return 0;
 360              		.loc 1 52 12
 361 0200 13050000 		li	a0,0
 362              	.L17:
  53:src/syscall_c.cpp **** }
 363              		.loc 1 53 1
 364 0204 83308101 		ld	ra,24(sp)
 365              		.cfi_remember_state
 366              		.cfi_restore 1
 367 0208 03340101 		ld	s0,16(sp)
 368              		.cfi_restore 8
 369              		.cfi_def_cfa 2, 32
 370 020c 83348100 		ld	s1,8(sp)
 371              		.cfi_restore 9
 372              	.LVL29:
 373 0210 13010102 		addi	sp,sp,32
 374              		.cfi_def_cfa_offset 0
 375 0214 67800000 		jr	ra
 376              	.LVL30:
 377              	.L18:
 378              		.cfi_restore_state
  51:src/syscall_c.cpp ****     if(!(*handle))return -1;
 379              		.loc 1 51 27
 380 0218 1305F0FF 		li	a0,-1
 381 021c 6FF09FFE 		j	.L17
 382              		.cfi_endproc
 383              	.LFE27:
 385              		.align	2
 386              		.globl	sem_close
 388              	sem_close:
 389              	.LFB28:
  54:src/syscall_c.cpp **** 
  55:src/syscall_c.cpp **** extern "C" int sem_close (sem_t handle){
 390              		.loc 1 55 40 is_stmt 1
 391              		.cfi_startproc
 392              	.LVL31:
 393 0220 130101FF 		addi	sp,sp,-16
 394              		.cfi_def_cfa_offset 16
 395 0224 23341100 		sd	ra,8(sp)
 396 0228 23308100 		sd	s0,0(sp)
 397              		.cfi_offset 1, -8
 398              		.cfi_offset 8, -16
 399 022c 13040101 		addi	s0,sp,16
 400              		.cfi_def_cfa 8, 0
 401 0230 93050500 		mv	a1,a0
  56:src/syscall_c.cpp ****     callSupervisedTrap(0x22, handle);
 402              		.loc 1 56 5
 403              		.loc 1 56 23 is_stmt 0
 404 0234 13070000 		li	a4,0
 405 0238 93060000 		li	a3,0
GAS LISTING /tmp/ccRzv7Zr.s 			page 9


 406 023c 13060000 		li	a2,0
 407 0240 13052002 		li	a0,34
 408              	.LVL32:
 409 0244 97000000 		call	callSupervisedTrap
 409      E7800000 
 410              	.LVL33:
  57:src/syscall_c.cpp **** 
  58:src/syscall_c.cpp ****     __asm__ volatile("mv s5,a0");
 411              		.loc 1 58 5 is_stmt 1
 412              		.loc 1 58 33 is_stmt 0
 413              	#APP
 414              	# 58 "src/syscall_c.cpp" 1
  59              	    int result;
 415              		mv s5,a0
 416              	# 0 "" 2
 417              		.loc 1 59 5 is_stmt 1
  60:src/syscall_c.cpp ****     __asm__ volatile("mv %0,s5":"=r"(result));
 418              		.loc 1 60 5
 419              		.loc 1 60 46 is_stmt 0
 420              	# 60 "src/syscall_c.cpp" 1
  61              	    return result;
 421              		mv a0,s5
 422              	# 0 "" 2
 423              	.LVL34:
 424              		.loc 1 61 5 is_stmt 1
  62:src/syscall_c.cpp **** }
 425              		.loc 1 62 1 is_stmt 0
 426              	#NO_APP
 427 0254 1B050500 		sext.w	a0,a0
 428 0258 83308100 		ld	ra,8(sp)
 429              		.cfi_restore 1
 430 025c 03340100 		ld	s0,0(sp)
 431              		.cfi_restore 8
 432              		.cfi_def_cfa 2, 16
 433 0260 13010101 		addi	sp,sp,16
 434              		.cfi_def_cfa_offset 0
 435 0264 67800000 		jr	ra
 436              		.cfi_endproc
 437              	.LFE28:
 439              		.align	2
 440              		.globl	sem_wait
 442              	sem_wait:
 443              	.LFB29:
  63:src/syscall_c.cpp **** 
  64:src/syscall_c.cpp **** extern "C" int sem_wait (sem_t id){
 444              		.loc 1 64 35 is_stmt 1
 445              		.cfi_startproc
 446              	.LVL35:
 447 0268 130101FF 		addi	sp,sp,-16
 448              		.cfi_def_cfa_offset 16
 449 026c 23341100 		sd	ra,8(sp)
 450 0270 23308100 		sd	s0,0(sp)
 451              		.cfi_offset 1, -8
 452              		.cfi_offset 8, -16
 453 0274 13040101 		addi	s0,sp,16
 454              		.cfi_def_cfa 8, 0
 455 0278 93050500 		mv	a1,a0
GAS LISTING /tmp/ccRzv7Zr.s 			page 10


  65:src/syscall_c.cpp ****     callSupervisedTrap(0x23, id);
 456              		.loc 1 65 5
 457              		.loc 1 65 23 is_stmt 0
 458 027c 13070000 		li	a4,0
 459 0280 93060000 		li	a3,0
 460 0284 13060000 		li	a2,0
 461 0288 13053002 		li	a0,35
 462              	.LVL36:
 463 028c 97000000 		call	callSupervisedTrap
 463      E7800000 
 464              	.LVL37:
  66:src/syscall_c.cpp **** 
  67:src/syscall_c.cpp ****     __asm__ volatile("mv s5,a0");
 465              		.loc 1 67 5 is_stmt 1
 466              		.loc 1 67 33 is_stmt 0
 467              	#APP
 468              	# 67 "src/syscall_c.cpp" 1
  68              	    int result;
 469              		mv s5,a0
 470              	# 0 "" 2
 471              		.loc 1 68 5 is_stmt 1
  69:src/syscall_c.cpp ****     __asm__ volatile("mv %0,s5":"=r"(result));
 472              		.loc 1 69 5
 473              		.loc 1 69 46 is_stmt 0
 474              	# 69 "src/syscall_c.cpp" 1
  70              	    return result;
 475              		mv a0,s5
 476              	# 0 "" 2
 477              	.LVL38:
 478              		.loc 1 70 5 is_stmt 1
  71:src/syscall_c.cpp **** }
 479              		.loc 1 71 1 is_stmt 0
 480              	#NO_APP
 481 029c 1B050500 		sext.w	a0,a0
 482 02a0 83308100 		ld	ra,8(sp)
 483              		.cfi_restore 1
 484 02a4 03340100 		ld	s0,0(sp)
 485              		.cfi_restore 8
 486              		.cfi_def_cfa 2, 16
 487 02a8 13010101 		addi	sp,sp,16
 488              		.cfi_def_cfa_offset 0
 489 02ac 67800000 		jr	ra
 490              		.cfi_endproc
 491              	.LFE29:
 493              		.align	2
 494              		.globl	sem_signal
 496              	sem_signal:
 497              	.LFB30:
  72:src/syscall_c.cpp **** 
  73:src/syscall_c.cpp **** extern "C" int sem_signal (sem_t id){
 498              		.loc 1 73 37 is_stmt 1
 499              		.cfi_startproc
 500              	.LVL39:
 501 02b0 130101FF 		addi	sp,sp,-16
 502              		.cfi_def_cfa_offset 16
 503 02b4 23341100 		sd	ra,8(sp)
 504 02b8 23308100 		sd	s0,0(sp)
GAS LISTING /tmp/ccRzv7Zr.s 			page 11


 505              		.cfi_offset 1, -8
 506              		.cfi_offset 8, -16
 507 02bc 13040101 		addi	s0,sp,16
 508              		.cfi_def_cfa 8, 0
 509 02c0 93050500 		mv	a1,a0
  74:src/syscall_c.cpp ****     callSupervisedTrap(0x24, id);
 510              		.loc 1 74 5
 511              		.loc 1 74 23 is_stmt 0
 512 02c4 13070000 		li	a4,0
 513 02c8 93060000 		li	a3,0
 514 02cc 13060000 		li	a2,0
 515 02d0 13054002 		li	a0,36
 516              	.LVL40:
 517 02d4 97000000 		call	callSupervisedTrap
 517      E7800000 
 518              	.LVL41:
  75:src/syscall_c.cpp **** 
  76:src/syscall_c.cpp ****     __asm__ volatile("mv s5,a0");
 519              		.loc 1 76 5 is_stmt 1
 520              		.loc 1 76 33 is_stmt 0
 521              	#APP
 522              	# 76 "src/syscall_c.cpp" 1
  77              	    int result;
 523              		mv s5,a0
 524              	# 0 "" 2
 525              		.loc 1 77 5 is_stmt 1
  78:src/syscall_c.cpp ****     __asm__ volatile("mv %0,s5":"=r"(result));
 526              		.loc 1 78 5
 527              		.loc 1 78 46 is_stmt 0
 528              	# 78 "src/syscall_c.cpp" 1
  79              	    return result;
 529              		mv a0,s5
 530              	# 0 "" 2
 531              	.LVL42:
 532              		.loc 1 79 5 is_stmt 1
  80:src/syscall_c.cpp **** }
 533              		.loc 1 80 1 is_stmt 0
 534              	#NO_APP
 535 02e4 1B050500 		sext.w	a0,a0
 536 02e8 83308100 		ld	ra,8(sp)
 537              		.cfi_restore 1
 538 02ec 03340100 		ld	s0,0(sp)
 539              		.cfi_restore 8
 540              		.cfi_def_cfa 2, 16
 541 02f0 13010101 		addi	sp,sp,16
 542              		.cfi_def_cfa_offset 0
 543 02f4 67800000 		jr	ra
 544              		.cfi_endproc
 545              	.LFE30:
 547              		.align	2
 548              		.globl	getc
 550              	getc:
 551              	.LFB31:
  81:src/syscall_c.cpp **** 
  82:src/syscall_c.cpp **** 
  83:src/syscall_c.cpp **** 
  84:src/syscall_c.cpp **** extern "C" char getc (){
GAS LISTING /tmp/ccRzv7Zr.s 			page 12


 552              		.loc 1 84 24 is_stmt 1
 553              		.cfi_startproc
 554 02f8 130101FF 		addi	sp,sp,-16
 555              		.cfi_def_cfa_offset 16
 556 02fc 23341100 		sd	ra,8(sp)
 557 0300 23308100 		sd	s0,0(sp)
 558              		.cfi_offset 1, -8
 559              		.cfi_offset 8, -16
 560 0304 13040101 		addi	s0,sp,16
 561              		.cfi_def_cfa 8, 0
  85:src/syscall_c.cpp ****     /*char c = __getc();
  86:src/syscall_c.cpp ****     return c;*/
  87:src/syscall_c.cpp ****     callSupervisedTrap(0x41);
 562              		.loc 1 87 5
 563              		.loc 1 87 23 is_stmt 0
 564 0308 13070000 		li	a4,0
 565 030c 93060000 		li	a3,0
 566 0310 13060000 		li	a2,0
 567 0314 93050000 		li	a1,0
 568 0318 13051004 		li	a0,65
 569 031c 97000000 		call	callSupervisedTrap
 569      E7800000 
 570              	.LVL43:
  88:src/syscall_c.cpp ****     char c;
 571              		.loc 1 88 5 is_stmt 1
  89:src/syscall_c.cpp ****     __asm__ volatile("mv %[c],a0":[c]"=r"(c));
 572              		.loc 1 89 5
 573              		.loc 1 89 46 is_stmt 0
 574              	#APP
 575              	# 89 "src/syscall_c.cpp" 1
  90              	    return c;
 576              		mv a0,a0
 577              	# 0 "" 2
 578              	.LVL44:
 579              		.loc 1 90 5 is_stmt 1
  91:src/syscall_c.cpp **** }
 580              		.loc 1 91 1 is_stmt 0
 581              	#NO_APP
 582 0328 1375F50F 		andi	a0,a0,0xff
 583 032c 83308100 		ld	ra,8(sp)
 584              		.cfi_restore 1
 585 0330 03340100 		ld	s0,0(sp)
 586              		.cfi_restore 8
 587              		.cfi_def_cfa 2, 16
 588 0334 13010101 		addi	sp,sp,16
 589              		.cfi_def_cfa_offset 0
 590 0338 67800000 		jr	ra
 591              		.cfi_endproc
 592              	.LFE31:
 594              		.align	2
 595              		.globl	putc
 597              	putc:
 598              	.LFB32:
  92:src/syscall_c.cpp **** 
  93:src/syscall_c.cpp **** extern "C" void putc(char c){
 599              		.loc 1 93 29 is_stmt 1
 600              		.cfi_startproc
GAS LISTING /tmp/ccRzv7Zr.s 			page 13


 601              	.LVL45:
 602 033c 130101FF 		addi	sp,sp,-16
 603              		.cfi_def_cfa_offset 16
 604 0340 23341100 		sd	ra,8(sp)
 605 0344 23308100 		sd	s0,0(sp)
 606              		.cfi_offset 1, -8
 607              		.cfi_offset 8, -16
 608 0348 13040101 		addi	s0,sp,16
 609              		.cfi_def_cfa 8, 0
  94:src/syscall_c.cpp ****     __putc(c);
 610              		.loc 1 94 5
 611              		.loc 1 94 11 is_stmt 0
 612 034c 97000000 		call	__putc@plt
 612      E7800000 
 613              	.LVL46:
  95:src/syscall_c.cpp ****     //callSupervisedTrap(0x42, (void*)(uint64)c);
  96:src/syscall_c.cpp **** }...
 614              		.loc 1 96 1
 615 0354 83308100 		ld	ra,8(sp)
 616              		.cfi_restore 1
 617 0358 03340100 		ld	s0,0(sp)
 618              		.cfi_restore 8
 619              		.cfi_def_cfa 2, 16
 620 035c 13010101 		addi	sp,sp,16
 621              		.cfi_def_cfa_offset 0
 622 0360 67800000 		jr	ra
 623              		.cfi_endproc
 624              	.LFE32:
 626              	.Letext0:
 627              		.file 2 "src/../h/../lib/hw.h"
 628              		.file 3 "src/../h/kernel_functions.hpp"
 629              		.file 4 "src/../h/TCB.hpp"
 630              		.file 5 "src/../h/SchedulerNode.hpp"
 631              		.file 6 "src/../h/SemaphoreNode.hpp"
 632              		.file 7 "src/../h/SemaphoreBase.hpp"
 633              		.file 8 "src/../h/syscall_c.h"
 634              		.file 9 "src/../lib/console.h"
GAS LISTING /tmp/ccRzv7Zr.s 			page 14

